
        .arch armv5te
        .fpu softvfp
        .eabi_attribute 20, 1
        .eabi_attribute 21, 1
        .eabi_attribute 23, 3
        .eabi_attribute 24, 1
        .eabi_attribute 25, 1
        .eabi_attribute 26, 2
        .eabi_attribute 30, 4
        .eabi_attribute 34, 0
        .eabi_attribute 18, 4
        .file   "fakesymstubs_arm32.c"
        .text
        .align  2


        .global _ZN5Actor8getLevelEv 
        .type   _ZN5Actor8getLevelEv, %function
_ZN5Actor8getLevelEv:
        ldr     ip, .L_ZN5Actor8getLevelEv2
.L_ZN5Actor8getLevelEvPIC0:
        add     ip, pc, ip 
        ldr     ip, [ip]
        blx     ip 
.L_ZN5Actor8getLevelEv3:
        .align  2
.L_ZN5Actor8getLevelEv2:
        .word   bl_addr__ZN5Actor8getLevelEv-(.L_ZN5Actor8getLevelEvPIC0+8)
        .size   _ZN5Actor8getLevelEv, .-_ZN5Actor8getLevelEv
        .hidden bl_addr__ZN5Actor8getLevelEv


        .global _ZNK5Actor11getUniqueIDEv 
        .type   _ZNK5Actor11getUniqueIDEv, %function
_ZNK5Actor11getUniqueIDEv:
        ldr     ip, .L_ZNK5Actor11getUniqueIDEv2
.L_ZNK5Actor11getUniqueIDEvPIC0:
        add     ip, pc, ip 
        ldr     ip, [ip]
        blx     ip 
.L_ZNK5Actor11getUniqueIDEv3:
        .align  2
.L_ZNK5Actor11getUniqueIDEv2:
        .word   bl_addr__ZNK5Actor11getUniqueIDEv-(.L_ZNK5Actor11getUniqueIDEvPIC0+8)
        .size   _ZNK5Actor11getUniqueIDEv, .-_ZNK5Actor11getUniqueIDEv
        .hidden bl_addr__ZNK5Actor11getUniqueIDEv


        .global _ZN14ClientInstance19getLocalServerLevelEv 
        .type   _ZN14ClientInstance19getLocalServerLevelEv, %function
_ZN14ClientInstance19getLocalServerLevelEv:
        ldr     ip, .L_ZN14ClientInstance19getLocalServerLevelEv2
.L_ZN14ClientInstance19getLocalServerLevelEvPIC0:
        add     ip, pc, ip 
        ldr     ip, [ip]
        blx     ip 
.L_ZN14ClientInstance19getLocalServerLevelEv3:
        .align  2
.L_ZN14ClientInstance19getLocalServerLevelEv2:
        .word   bl_addr__ZN14ClientInstance19getLocalServerLevelEv-(.L_ZN14ClientInstance19getLocalServerLevelEvPIC0+8)
        .size   _ZN14ClientInstance19getLocalServerLevelEv, .-_ZN14ClientInstance19getLocalServerLevelEv
        .hidden bl_addr__ZN14ClientInstance19getLocalServerLevelEv


        .global _ZN14ClientInstance14getLocalPlayerEv 
        .type   _ZN14ClientInstance14getLocalPlayerEv, %function
_ZN14ClientInstance14getLocalPlayerEv:
        ldr     ip, .L_ZN14ClientInstance14getLocalPlayerEv2
.L_ZN14ClientInstance14getLocalPlayerEvPIC0:
        add     ip, pc, ip 
        ldr     ip, [ip]
        blx     ip 
.L_ZN14ClientInstance14getLocalPlayerEv3:
        .align  2
.L_ZN14ClientInstance14getLocalPlayerEv2:
        .word   bl_addr__ZN14ClientInstance14getLocalPlayerEv-(.L_ZN14ClientInstance14getLocalPlayerEvPIC0+8)
        .size   _ZN14ClientInstance14getLocalPlayerEv, .-_ZN14ClientInstance14getLocalPlayerEv
        .hidden bl_addr__ZN14ClientInstance14getLocalPlayerEv


        .global _ZNK5Level9getPlayerE13ActorUniqueID 
        .type   _ZNK5Level9getPlayerE13ActorUniqueID, %function
_ZNK5Level9getPlayerE13ActorUniqueID:
        ldr     ip, .L_ZNK5Level9getPlayerE13ActorUniqueID2
.L_ZNK5Level9getPlayerE13ActorUniqueIDPIC0:
        add     ip, pc, ip 
        ldr     ip, [ip]
        blx     ip 
.L_ZNK5Level9getPlayerE13ActorUniqueID3:
        .align  2
.L_ZNK5Level9getPlayerE13ActorUniqueID2:
        .word   bl_addr__ZNK5Level9getPlayerE13ActorUniqueID-(.L_ZNK5Level9getPlayerE13ActorUniqueIDPIC0+8)
        .size   _ZNK5Level9getPlayerE13ActorUniqueID, .-_ZNK5Level9getPlayerE13ActorUniqueID
        .hidden bl_addr__ZNK5Level9getPlayerE13ActorUniqueID


        .global _ZN8GameMode18getDestroyProgressEv 
        .type   _ZN8GameMode18getDestroyProgressEv, %function
_ZN8GameMode18getDestroyProgressEv:
        ldr     ip, .L_ZN8GameMode18getDestroyProgressEv2
.L_ZN8GameMode18getDestroyProgressEvPIC0:
        add     ip, pc, ip 
        ldr     ip, [ip]
        blx     ip 
.L_ZN8GameMode18getDestroyProgressEv3:
        .align  2
.L_ZN8GameMode18getDestroyProgressEv2:
        .word   bl_addr__ZN8GameMode18getDestroyProgressEv-(.L_ZN8GameMode18getDestroyProgressEvPIC0+8)
        .size   _ZN8GameMode18getDestroyProgressEv, .-_ZN8GameMode18getDestroyProgressEv
        .hidden bl_addr__ZN8GameMode18getDestroyProgressEv


        .global _ZNK12ItemInstance5getIdEv 
        .type   _ZNK12ItemInstance5getIdEv, %function
_ZNK12ItemInstance5getIdEv:
        ldr     ip, .L_ZNK12ItemInstance5getIdEv2
.L_ZNK12ItemInstance5getIdEvPIC0:
        add     ip, pc, ip 
        ldr     ip, [ip]
        blx     ip 
.L_ZNK12ItemInstance5getIdEv3:
        .align  2
.L_ZNK12ItemInstance5getIdEv2:
        .word   bl_addr__ZNK12ItemInstance5getIdEv-(.L_ZNK12ItemInstance5getIdEvPIC0+8)
        .size   _ZNK12ItemInstance5getIdEv, .-_ZNK12ItemInstance5getIdEv
        .hidden bl_addr__ZNK12ItemInstance5getIdEv


        .global _ZNK12ItemInstance14getDamageValueEv 
        .type   _ZNK12ItemInstance14getDamageValueEv, %function
_ZNK12ItemInstance14getDamageValueEv:
        ldr     ip, .L_ZNK12ItemInstance14getDamageValueEv2
.L_ZNK12ItemInstance14getDamageValueEvPIC0:
        add     ip, pc, ip 
        ldr     ip, [ip]
        blx     ip 
.L_ZNK12ItemInstance14getDamageValueEv3:
        .align  2
.L_ZNK12ItemInstance14getDamageValueEv2:
        .word   bl_addr__ZNK12ItemInstance14getDamageValueEv-(.L_ZNK12ItemInstance14getDamageValueEvPIC0+8)
        .size   _ZNK12ItemInstance14getDamageValueEv, .-_ZNK12ItemInstance14getDamageValueEv
        .hidden bl_addr__ZNK12ItemInstance14getDamageValueEv


        .global _ZNK5Actor9getRegionEv 
        .type   _ZNK5Actor9getRegionEv, %function
_ZNK5Actor9getRegionEv:
        ldr     ip, .L_ZNK5Actor9getRegionEv2
.L_ZNK5Actor9getRegionEvPIC0:
        add     ip, pc, ip 
        ldr     ip, [ip]
        blx     ip 
.L_ZNK5Actor9getRegionEv3:
        .align  2
.L_ZNK5Actor9getRegionEv2:
        .word   bl_addr__ZNK5Actor9getRegionEv-(.L_ZNK5Actor9getRegionEvPIC0+8)
        .size   _ZNK5Actor9getRegionEv, .-_ZNK5Actor9getRegionEv
        .hidden bl_addr__ZNK5Actor9getRegionEv


        .global _ZNK11BlockSource8getBlockERK8BlockPos 
        .type   _ZNK11BlockSource8getBlockERK8BlockPos, %function
_ZNK11BlockSource8getBlockERK8BlockPos:
        ldr     ip, .L_ZNK11BlockSource8getBlockERK8BlockPos2
.L_ZNK11BlockSource8getBlockERK8BlockPosPIC0:
        add     ip, pc, ip 
        ldr     ip, [ip]
        blx     ip 
.L_ZNK11BlockSource8getBlockERK8BlockPos3:
        .align  2
.L_ZNK11BlockSource8getBlockERK8BlockPos2:
        .word   bl_addr__ZNK11BlockSource8getBlockERK8BlockPos-(.L_ZNK11BlockSource8getBlockERK8BlockPosPIC0+8)
        .size   _ZNK11BlockSource8getBlockERK8BlockPos, .-_ZNK11BlockSource8getBlockERK8BlockPos
        .hidden bl_addr__ZNK11BlockSource8getBlockERK8BlockPos


        .global _ZNK13MinecraftGame19getLocalServerLevelEv 
        .type   _ZNK13MinecraftGame19getLocalServerLevelEv, %function
_ZNK13MinecraftGame19getLocalServerLevelEv:
        ldr     ip, .L_ZNK13MinecraftGame19getLocalServerLevelEv2
.L_ZNK13MinecraftGame19getLocalServerLevelEvPIC0:
        add     ip, pc, ip 
        ldr     ip, [ip]
        blx     ip 
.L_ZNK13MinecraftGame19getLocalServerLevelEv3:
        .align  2
.L_ZNK13MinecraftGame19getLocalServerLevelEv2:
        .word   bl_addr__ZNK13MinecraftGame19getLocalServerLevelEv-(.L_ZNK13MinecraftGame19getLocalServerLevelEvPIC0+8)
        .size   _ZNK13MinecraftGame19getLocalServerLevelEv, .-_ZNK13MinecraftGame19getLocalServerLevelEv
        .hidden bl_addr__ZNK13MinecraftGame19getLocalServerLevelEv


        .global _ZN9ItemStackC1Ev 
        .type   _ZN9ItemStackC1Ev, %function
_ZN9ItemStackC1Ev:
        ldr     ip, .L_ZN9ItemStackC1Ev2
.L_ZN9ItemStackC1EvPIC0:
        add     ip, pc, ip 
        ldr     ip, [ip]
        blx     ip 
.L_ZN9ItemStackC1Ev3:
        .align  2
.L_ZN9ItemStackC1Ev2:
        .word   bl_addr__ZN9ItemStackC1Ev-(.L_ZN9ItemStackC1EvPIC0+8)
        .size   _ZN9ItemStackC1Ev, .-_ZN9ItemStackC1Ev
        .hidden bl_addr__ZN9ItemStackC1Ev


        .global _ZN12ItemInstance4initEiii 
        .type   _ZN12ItemInstance4initEiii, %function
_ZN12ItemInstance4initEiii:
        ldr     ip, .L_ZN12ItemInstance4initEiii2
.L_ZN12ItemInstance4initEiiiPIC0:
        add     ip, pc, ip 
        ldr     ip, [ip]
        blx     ip 
.L_ZN12ItemInstance4initEiii3:
        .align  2
.L_ZN12ItemInstance4initEiii2:
        .word   bl_addr__ZN12ItemInstance4initEiii-(.L_ZN12ItemInstance4initEiiiPIC0+8)
        .size   _ZN12ItemInstance4initEiii, .-_ZN12ItemInstance4initEiii
        .hidden bl_addr__ZN12ItemInstance4initEiii


        .global _ZN12ItemInstance8_setItemEi 
        .type   _ZN12ItemInstance8_setItemEi, %function
_ZN12ItemInstance8_setItemEi:
        ldr     ip, .L_ZN12ItemInstance8_setItemEi2
.L_ZN12ItemInstance8_setItemEiPIC0:
        add     ip, pc, ip 
        ldr     ip, [ip]
        blx     ip 
.L_ZN12ItemInstance8_setItemEi3:
        .align  2
.L_ZN12ItemInstance8_setItemEi2:
        .word   bl_addr__ZN12ItemInstance8_setItemEi-(.L_ZN12ItemInstance8_setItemEiPIC0+8)
        .size   _ZN12ItemInstance8_setItemEi, .-_ZN12ItemInstance8_setItemEi
        .hidden bl_addr__ZN12ItemInstance8_setItemEi


        .global _ZNK5Level21getGlobalBlockPaletteEv 
        .type   _ZNK5Level21getGlobalBlockPaletteEv, %function
_ZNK5Level21getGlobalBlockPaletteEv:
        ldr     ip, .L_ZNK5Level21getGlobalBlockPaletteEv2
.L_ZNK5Level21getGlobalBlockPaletteEvPIC0:
        add     ip, pc, ip 
        ldr     ip, [ip]
        blx     ip 
.L_ZNK5Level21getGlobalBlockPaletteEv3:
        .align  2
.L_ZNK5Level21getGlobalBlockPaletteEv2:
        .word   bl_addr__ZNK5Level21getGlobalBlockPaletteEv-(.L_ZNK5Level21getGlobalBlockPaletteEvPIC0+8)
        .size   _ZNK5Level21getGlobalBlockPaletteEv, .-_ZNK5Level21getGlobalBlockPaletteEv
        .hidden bl_addr__ZNK5Level21getGlobalBlockPaletteEv


        .global _ZNK12BlockPalette22getBlockFromLegacyDataE10NewBlockIDj 
        .type   _ZNK12BlockPalette22getBlockFromLegacyDataE10NewBlockIDj, %function
_ZNK12BlockPalette22getBlockFromLegacyDataE10NewBlockIDj:
        ldr     ip, .L_ZNK12BlockPalette22getBlockFromLegacyDataE10NewBlockIDj2
.L_ZNK12BlockPalette22getBlockFromLegacyDataE10NewBlockIDjPIC0:
        add     ip, pc, ip 
        ldr     ip, [ip]
        blx     ip 
.L_ZNK12BlockPalette22getBlockFromLegacyDataE10NewBlockIDj3:
        .align  2
.L_ZNK12BlockPalette22getBlockFromLegacyDataE10NewBlockIDj2:
        .word   bl_addr__ZNK12BlockPalette22getBlockFromLegacyDataE10NewBlockIDj-(.L_ZNK12BlockPalette22getBlockFromLegacyDataE10NewBlockIDjPIC0+8)
        .size   _ZNK12BlockPalette22getBlockFromLegacyDataE10NewBlockIDj, .-_ZNK12BlockPalette22getBlockFromLegacyDataE10NewBlockIDj
        .hidden bl_addr__ZNK12BlockPalette22getBlockFromLegacyDataE10NewBlockIDj


        .global _ZNK11BlockLegacy22getStateFromLegacyDataEt 
        .type   _ZNK11BlockLegacy22getStateFromLegacyDataEt, %function
_ZNK11BlockLegacy22getStateFromLegacyDataEt:
        ldr     ip, .L_ZNK11BlockLegacy22getStateFromLegacyDataEt2
.L_ZNK11BlockLegacy22getStateFromLegacyDataEtPIC0:
        add     ip, pc, ip 
        ldr     ip, [ip]
        blx     ip 
.L_ZNK11BlockLegacy22getStateFromLegacyDataEt3:
        .align  2
.L_ZNK11BlockLegacy22getStateFromLegacyDataEt2:
        .word   bl_addr__ZNK11BlockLegacy22getStateFromLegacyDataEt-(.L_ZNK11BlockLegacy22getStateFromLegacyDataEtPIC0+8)
        .size   _ZNK11BlockLegacy22getStateFromLegacyDataEt, .-_ZNK11BlockLegacy22getStateFromLegacyDataEt
        .hidden bl_addr__ZNK11BlockLegacy22getStateFromLegacyDataEt


        .global _ZN9ItemStack8setBlockEPK5Block 
        .type   _ZN9ItemStack8setBlockEPK5Block, %function
_ZN9ItemStack8setBlockEPK5Block:
        ldr     ip, .L_ZN9ItemStack8setBlockEPK5Block2
.L_ZN9ItemStack8setBlockEPK5BlockPIC0:
        add     ip, pc, ip 
        ldr     ip, [ip]
        blx     ip 
.L_ZN9ItemStack8setBlockEPK5Block3:
        .align  2
.L_ZN9ItemStack8setBlockEPK5Block2:
        .word   bl_addr__ZN9ItemStack8setBlockEPK5Block-(.L_ZN9ItemStack8setBlockEPK5BlockPIC0+8)
        .size   _ZN9ItemStack8setBlockEPK5Block, .-_ZN9ItemStack8setBlockEPK5Block
        .hidden bl_addr__ZN9ItemStack8setBlockEPK5Block


        .global _ZN12ItemInstanceC1Ev 
        .type   _ZN12ItemInstanceC1Ev, %function
_ZN12ItemInstanceC1Ev:
        ldr     ip, .L_ZN12ItemInstanceC1Ev2
.L_ZN12ItemInstanceC1EvPIC0:
        add     ip, pc, ip 
        ldr     ip, [ip]
        blx     ip 
.L_ZN12ItemInstanceC1Ev3:
        .align  2
.L_ZN12ItemInstanceC1Ev2:
        .word   bl_addr__ZN12ItemInstanceC1Ev-(.L_ZN12ItemInstanceC1EvPIC0+8)
        .size   _ZN12ItemInstanceC1Ev, .-_ZN12ItemInstanceC1Ev
        .hidden bl_addr__ZN12ItemInstanceC1Ev


        .global _ZN5Actor6setRotERK4Vec2 
        .type   _ZN5Actor6setRotERK4Vec2, %function
_ZN5Actor6setRotERK4Vec2:
        ldr     ip, .L_ZN5Actor6setRotERK4Vec22
.L_ZN5Actor6setRotERK4Vec2PIC0:
        add     ip, pc, ip 
        ldr     ip, [ip]
        blx     ip 
.L_ZN5Actor6setRotERK4Vec23:
        .align  2
.L_ZN5Actor6setRotERK4Vec22:
        .word   bl_addr__ZN5Actor6setRotERK4Vec2-(.L_ZN5Actor6setRotERK4Vec2PIC0+8)
        .size   _ZN5Actor6setRotERK4Vec2, .-_ZN5Actor6setRotERK4Vec2
        .hidden bl_addr__ZN5Actor6setRotERK4Vec2


        .global _ZNK5Level12isClientSideEv 
        .type   _ZNK5Level12isClientSideEv, %function
_ZNK5Level12isClientSideEv:
        ldr     ip, .L_ZNK5Level12isClientSideEv2
.L_ZNK5Level12isClientSideEvPIC0:
        add     ip, pc, ip 
        ldr     ip, [ip]
        blx     ip 
.L_ZNK5Level12isClientSideEv3:
        .align  2
.L_ZNK5Level12isClientSideEv2:
        .word   bl_addr__ZNK5Level12isClientSideEv-(.L_ZNK5Level12isClientSideEvPIC0+8)
        .size   _ZNK5Level12isClientSideEv, .-_ZNK5Level12isClientSideEv
        .hidden bl_addr__ZNK5Level12isClientSideEv


        .global _ZN5ActorD2Ev 
        .type   _ZN5ActorD2Ev, %function
_ZN5ActorD2Ev:
        ldr     ip, .L_ZN5ActorD2Ev2
.L_ZN5ActorD2EvPIC0:
        add     ip, pc, ip 
        ldr     ip, [ip]
        blx     ip 
.L_ZN5ActorD2Ev3:
        .align  2
.L_ZN5ActorD2Ev2:
        .word   bl_addr__ZN5ActorD2Ev-(.L_ZN5ActorD2EvPIC0+8)
        .size   _ZN5ActorD2Ev, .-_ZN5ActorD2Ev
        .hidden bl_addr__ZN5ActorD2Ev


        .global _ZNK14ClientInstance16getMinecraftGameEv 
        .type   _ZNK14ClientInstance16getMinecraftGameEv, %function
_ZNK14ClientInstance16getMinecraftGameEv:
        ldr     ip, .L_ZNK14ClientInstance16getMinecraftGameEv2
.L_ZNK14ClientInstance16getMinecraftGameEvPIC0:
        add     ip, pc, ip 
        ldr     ip, [ip]
        blx     ip 
.L_ZNK14ClientInstance16getMinecraftGameEv3:
        .align  2
.L_ZNK14ClientInstance16getMinecraftGameEv2:
        .word   bl_addr__ZNK14ClientInstance16getMinecraftGameEv-(.L_ZNK14ClientInstance16getMinecraftGameEvPIC0+8)
        .size   _ZNK14ClientInstance16getMinecraftGameEv, .-_ZNK14ClientInstance16getMinecraftGameEv
        .hidden bl_addr__ZNK14ClientInstance16getMinecraftGameEv


        .global _ZN13MinecraftGame24getPrimaryClientInstanceEv 
        .type   _ZN13MinecraftGame24getPrimaryClientInstanceEv, %function
_ZN13MinecraftGame24getPrimaryClientInstanceEv:
        ldr     ip, .L_ZN13MinecraftGame24getPrimaryClientInstanceEv2
.L_ZN13MinecraftGame24getPrimaryClientInstanceEvPIC0:
        add     ip, pc, ip 
        ldr     ip, [ip]
        blx     ip 
.L_ZN13MinecraftGame24getPrimaryClientInstanceEv3:
        .align  2
.L_ZN13MinecraftGame24getPrimaryClientInstanceEv2:
        .word   bl_addr__ZN13MinecraftGame24getPrimaryClientInstanceEv-(.L_ZN13MinecraftGame24getPrimaryClientInstanceEvPIC0+8)
        .size   _ZN13MinecraftGame24getPrimaryClientInstanceEv, .-_ZN13MinecraftGame24getPrimaryClientInstanceEv
        .hidden bl_addr__ZN13MinecraftGame24getPrimaryClientInstanceEv


        .global _ZN11BlockSource14getBlockEntityEiii 
        .type   _ZN11BlockSource14getBlockEntityEiii, %function
_ZN11BlockSource14getBlockEntityEiii:
        ldr     ip, .L_ZN11BlockSource14getBlockEntityEiii2
.L_ZN11BlockSource14getBlockEntityEiiiPIC0:
        add     ip, pc, ip 
        ldr     ip, [ip]
        blx     ip 
.L_ZN11BlockSource14getBlockEntityEiii3:
        .align  2
.L_ZN11BlockSource14getBlockEntityEiii2:
        .word   bl_addr__ZN11BlockSource14getBlockEntityEiii-(.L_ZN11BlockSource14getBlockEntityEiiiPIC0+8)
        .size   _ZN11BlockSource14getBlockEntityEiii, .-_ZN11BlockSource14getBlockEntityEiii
        .hidden bl_addr__ZN11BlockSource14getBlockEntityEiii


        .global _ZNK15ChestBlockActor7getItemEi 
        .type   _ZNK15ChestBlockActor7getItemEi, %function
_ZNK15ChestBlockActor7getItemEi:
        ldr     ip, .L_ZNK15ChestBlockActor7getItemEi2
.L_ZNK15ChestBlockActor7getItemEiPIC0:
        add     ip, pc, ip 
        ldr     ip, [ip]
        blx     ip 
.L_ZNK15ChestBlockActor7getItemEi3:
        .align  2
.L_ZNK15ChestBlockActor7getItemEi2:
        .word   bl_addr__ZNK15ChestBlockActor7getItemEi-(.L_ZNK15ChestBlockActor7getItemEiPIC0+8)
        .size   _ZNK15ChestBlockActor7getItemEi, .-_ZNK15ChestBlockActor7getItemEi
        .hidden bl_addr__ZNK15ChestBlockActor7getItemEi


        .global _ZNK12ItemInstance18hasCustomHoverNameEv 
        .type   _ZNK12ItemInstance18hasCustomHoverNameEv, %function
_ZNK12ItemInstance18hasCustomHoverNameEv:
        ldr     ip, .L_ZNK12ItemInstance18hasCustomHoverNameEv2
.L_ZNK12ItemInstance18hasCustomHoverNameEvPIC0:
        add     ip, pc, ip 
        ldr     ip, [ip]
        blx     ip 
.L_ZNK12ItemInstance18hasCustomHoverNameEv3:
        .align  2
.L_ZNK12ItemInstance18hasCustomHoverNameEv2:
        .word   bl_addr__ZNK12ItemInstance18hasCustomHoverNameEv-(.L_ZNK12ItemInstance18hasCustomHoverNameEvPIC0+8)
        .size   _ZNK12ItemInstance18hasCustomHoverNameEv, .-_ZNK12ItemInstance18hasCustomHoverNameEv
        .hidden bl_addr__ZNK12ItemInstance18hasCustomHoverNameEv


        .global _ZNK12ItemInstance13getCustomNameEv 
        .type   _ZNK12ItemInstance13getCustomNameEv, %function
_ZNK12ItemInstance13getCustomNameEv:
        ldr     ip, .L_ZNK12ItemInstance13getCustomNameEv2
.L_ZNK12ItemInstance13getCustomNameEvPIC0:
        add     ip, pc, ip 
        ldr     ip, [ip]
        blx     ip 
.L_ZNK12ItemInstance13getCustomNameEv3:
        .align  2
.L_ZNK12ItemInstance13getCustomNameEv2:
        .word   bl_addr__ZNK12ItemInstance13getCustomNameEv-(.L_ZNK12ItemInstance13getCustomNameEvPIC0+8)
        .size   _ZNK12ItemInstance13getCustomNameEv, .-_ZNK12ItemInstance13getCustomNameEv
        .hidden bl_addr__ZNK12ItemInstance13getCustomNameEv


        .global _ZN12ItemInstance13setCustomNameERKSs 
        .type   _ZN12ItemInstance13setCustomNameERKSs, %function
_ZN12ItemInstance13setCustomNameERKSs:
        ldr     ip, .L_ZN12ItemInstance13setCustomNameERKSs2
.L_ZN12ItemInstance13setCustomNameERKSsPIC0:
        add     ip, pc, ip 
        ldr     ip, [ip]
        blx     ip 
.L_ZN12ItemInstance13setCustomNameERKSs3:
        .align  2
.L_ZN12ItemInstance13setCustomNameERKSs2:
        .word   bl_addr__ZN12ItemInstance13setCustomNameERKSs-(.L_ZN12ItemInstance13setCustomNameERKSsPIC0+8)
        .size   _ZN12ItemInstance13setCustomNameERKSs, .-_ZN12ItemInstance13setCustomNameERKSs
        .hidden bl_addr__ZN12ItemInstance13setCustomNameERKSs


        .global _ZN15ChestBlockActor7setItemEiRK9ItemStack 
        .type   _ZN15ChestBlockActor7setItemEiRK9ItemStack, %function
_ZN15ChestBlockActor7setItemEiRK9ItemStack:
        ldr     ip, .L_ZN15ChestBlockActor7setItemEiRK9ItemStack2
.L_ZN15ChestBlockActor7setItemEiRK9ItemStackPIC0:
        add     ip, pc, ip 
        ldr     ip, [ip]
        blx     ip 
.L_ZN15ChestBlockActor7setItemEiRK9ItemStack3:
        .align  2
.L_ZN15ChestBlockActor7setItemEiRK9ItemStack2:
        .word   bl_addr__ZN15ChestBlockActor7setItemEiRK9ItemStack-(.L_ZN15ChestBlockActor7setItemEiRK9ItemStackPIC0+8)
        .size   _ZN15ChestBlockActor7setItemEiRK9ItemStack, .-_ZN15ChestBlockActor7setItemEiRK9ItemStack
        .hidden bl_addr__ZN15ChestBlockActor7setItemEiRK9ItemStack


        .global _ZN5Level7setTimeEi 
        .type   _ZN5Level7setTimeEi, %function
_ZN5Level7setTimeEi:
        ldr     ip, .L_ZN5Level7setTimeEi2
.L_ZN5Level7setTimeEiPIC0:
        add     ip, pc, ip 
        ldr     ip, [ip]
        blx     ip 
.L_ZN5Level7setTimeEi3:
        .align  2
.L_ZN5Level7setTimeEi2:
        .word   bl_addr__ZN5Level7setTimeEi-(.L_ZN5Level7setTimeEiPIC0+8)
        .size   _ZN5Level7setTimeEi, .-_ZN5Level7setTimeEi
        .hidden bl_addr__ZN5Level7setTimeEi


        .global _ZNK5Level7getTimeEv 
        .type   _ZNK5Level7getTimeEv, %function
_ZNK5Level7getTimeEv:
        ldr     ip, .L_ZNK5Level7getTimeEv2
.L_ZNK5Level7getTimeEvPIC0:
        add     ip, pc, ip 
        ldr     ip, [ip]
        blx     ip 
.L_ZNK5Level7getTimeEv3:
        .align  2
.L_ZNK5Level7getTimeEv2:
        .word   bl_addr__ZNK5Level7getTimeEv-(.L_ZNK5Level7getTimeEvPIC0+8)
        .size   _ZNK5Level7getTimeEv, .-_ZNK5Level7getTimeEv
        .hidden bl_addr__ZNK5Level7getTimeEv


        .global _ZN5Level12getLevelDataEv 
        .type   _ZN5Level12getLevelDataEv, %function
_ZN5Level12getLevelDataEv:
        ldr     ip, .L_ZN5Level12getLevelDataEv2
.L_ZN5Level12getLevelDataEvPIC0:
        add     ip, pc, ip 
        ldr     ip, [ip]
        blx     ip 
.L_ZN5Level12getLevelDataEv3:
        .align  2
.L_ZN5Level12getLevelDataEv2:
        .word   bl_addr__ZN5Level12getLevelDataEv-(.L_ZN5Level12getLevelDataEvPIC0+8)
        .size   _ZN5Level12getLevelDataEv, .-_ZN5Level12getLevelDataEv
        .hidden bl_addr__ZN5Level12getLevelDataEv


        .global _ZN9LevelData11setSpawnPosERK8BlockPos 
        .type   _ZN9LevelData11setSpawnPosERK8BlockPos, %function
_ZN9LevelData11setSpawnPosERK8BlockPos:
        ldr     ip, .L_ZN9LevelData11setSpawnPosERK8BlockPos2
.L_ZN9LevelData11setSpawnPosERK8BlockPosPIC0:
        add     ip, pc, ip 
        ldr     ip, [ip]
        blx     ip 
.L_ZN9LevelData11setSpawnPosERK8BlockPos3:
        .align  2
.L_ZN9LevelData11setSpawnPosERK8BlockPos2:
        .word   bl_addr__ZN9LevelData11setSpawnPosERK8BlockPos-(.L_ZN9LevelData11setSpawnPosERK8BlockPosPIC0+8)
        .size   _ZN9LevelData11setSpawnPosERK8BlockPos, .-_ZN9LevelData11setSpawnPosERK8BlockPos
        .hidden bl_addr__ZN9LevelData11setSpawnPosERK8BlockPos


        .global _ZN8GameMode21_destroyBlockInternalERK8BlockPosh 
        .type   _ZN8GameMode21_destroyBlockInternalERK8BlockPosh, %function
_ZN8GameMode21_destroyBlockInternalERK8BlockPosh:
        ldr     ip, .L_ZN8GameMode21_destroyBlockInternalERK8BlockPosh2
.L_ZN8GameMode21_destroyBlockInternalERK8BlockPoshPIC0:
        add     ip, pc, ip 
        ldr     ip, [ip]
        blx     ip 
.L_ZN8GameMode21_destroyBlockInternalERK8BlockPosh3:
        .align  2
.L_ZN8GameMode21_destroyBlockInternalERK8BlockPosh2:
        .word   bl_addr__ZN8GameMode21_destroyBlockInternalERK8BlockPosh-(.L_ZN8GameMode21_destroyBlockInternalERK8BlockPoshPIC0+8)
        .size   _ZN8GameMode21_destroyBlockInternalERK8BlockPosh, .-_ZN8GameMode21_destroyBlockInternalERK8BlockPosh
        .hidden bl_addr__ZN8GameMode21_destroyBlockInternalERK8BlockPosh


        .global _ZN11BlockSource8setBlockEiiiRK5Blocki 
        .type   _ZN11BlockSource8setBlockEiiiRK5Blocki, %function
_ZN11BlockSource8setBlockEiiiRK5Blocki:
        ldr     ip, .L_ZN11BlockSource8setBlockEiiiRK5Blocki2
.L_ZN11BlockSource8setBlockEiiiRK5BlockiPIC0:
        add     ip, pc, ip 
        ldr     ip, [ip]
        blx     ip 
.L_ZN11BlockSource8setBlockEiiiRK5Blocki3:
        .align  2
.L_ZN11BlockSource8setBlockEiiiRK5Blocki2:
        .word   bl_addr__ZN11BlockSource8setBlockEiiiRK5Blocki-(.L_ZN11BlockSource8setBlockEiiiRK5BlockiPIC0+8)
        .size   _ZN11BlockSource8setBlockEiiiRK5Blocki, .-_ZN11BlockSource8setBlockEiiiRK5Blocki
        .hidden bl_addr__ZN11BlockSource8setBlockEiiiRK5Blocki


        .global _ZN5Level7explodeER11BlockSourceP5ActorRK4Vec3fbbfb 
        .type   _ZN5Level7explodeER11BlockSourceP5ActorRK4Vec3fbbfb, %function
_ZN5Level7explodeER11BlockSourceP5ActorRK4Vec3fbbfb:
        ldr     ip, .L_ZN5Level7explodeER11BlockSourceP5ActorRK4Vec3fbbfb2
.L_ZN5Level7explodeER11BlockSourceP5ActorRK4Vec3fbbfbPIC0:
        add     ip, pc, ip 
        ldr     ip, [ip]
        blx     ip 
.L_ZN5Level7explodeER11BlockSourceP5ActorRK4Vec3fbbfb3:
        .align  2
.L_ZN5Level7explodeER11BlockSourceP5ActorRK4Vec3fbbfb2:
        .word   bl_addr__ZN5Level7explodeER11BlockSourceP5ActorRK4Vec3fbbfb-(.L_ZN5Level7explodeER11BlockSourceP5ActorRK4Vec3fbbfbPIC0+8)
        .size   _ZN5Level7explodeER11BlockSourceP5ActorRK4Vec3fbbfb, .-_ZN5Level7explodeER11BlockSourceP5ActorRK4Vec3fbbfb
        .hidden bl_addr__ZN5Level7explodeER11BlockSourceP5ActorRK4Vec3fbbfb


        .global _ZNK6Player11getSuppliesEv 
        .type   _ZNK6Player11getSuppliesEv, %function
_ZNK6Player11getSuppliesEv:
        ldr     ip, .L_ZNK6Player11getSuppliesEv2
.L_ZNK6Player11getSuppliesEvPIC0:
        add     ip, pc, ip 
        ldr     ip, [ip]
        blx     ip 
.L_ZNK6Player11getSuppliesEv3:
        .align  2
.L_ZNK6Player11getSuppliesEv2:
        .word   bl_addr__ZNK6Player11getSuppliesEv-(.L_ZNK6Player11getSuppliesEvPIC0+8)
        .size   _ZNK6Player11getSuppliesEv, .-_ZNK6Player11getSuppliesEv
        .hidden bl_addr__ZNK6Player11getSuppliesEv


        .global _ZN20PlayerInventoryProxy9clearSlotEi11ContainerID 
        .type   _ZN20PlayerInventoryProxy9clearSlotEi11ContainerID, %function
_ZN20PlayerInventoryProxy9clearSlotEi11ContainerID:
        ldr     ip, .L_ZN20PlayerInventoryProxy9clearSlotEi11ContainerID2
.L_ZN20PlayerInventoryProxy9clearSlotEi11ContainerIDPIC0:
        add     ip, pc, ip 
        ldr     ip, [ip]
        blx     ip 
.L_ZN20PlayerInventoryProxy9clearSlotEi11ContainerID3:
        .align  2
.L_ZN20PlayerInventoryProxy9clearSlotEi11ContainerID2:
        .word   bl_addr__ZN20PlayerInventoryProxy9clearSlotEi11ContainerID-(.L_ZN20PlayerInventoryProxy9clearSlotEi11ContainerIDPIC0+8)
        .size   _ZN20PlayerInventoryProxy9clearSlotEi11ContainerID, .-_ZN20PlayerInventoryProxy9clearSlotEi11ContainerID
        .hidden bl_addr__ZN20PlayerInventoryProxy9clearSlotEi11ContainerID


        .global _ZN12ServerPlayer13sendInventoryEb 
        .type   _ZN12ServerPlayer13sendInventoryEb, %function
_ZN12ServerPlayer13sendInventoryEb:
        ldr     ip, .L_ZN12ServerPlayer13sendInventoryEb2
.L_ZN12ServerPlayer13sendInventoryEbPIC0:
        add     ip, pc, ip 
        ldr     ip, [ip]
        blx     ip 
.L_ZN12ServerPlayer13sendInventoryEb3:
        .align  2
.L_ZN12ServerPlayer13sendInventoryEb2:
        .word   bl_addr__ZN12ServerPlayer13sendInventoryEb-(.L_ZN12ServerPlayer13sendInventoryEbPIC0+8)
        .size   _ZN12ServerPlayer13sendInventoryEb, .-_ZN12ServerPlayer13sendInventoryEb
        .hidden bl_addr__ZN12ServerPlayer13sendInventoryEb


        .global _ZNK20PlayerInventoryProxy7getItemEi11ContainerID 
        .type   _ZNK20PlayerInventoryProxy7getItemEi11ContainerID, %function
_ZNK20PlayerInventoryProxy7getItemEi11ContainerID:
        ldr     ip, .L_ZNK20PlayerInventoryProxy7getItemEi11ContainerID2
.L_ZNK20PlayerInventoryProxy7getItemEi11ContainerIDPIC0:
        add     ip, pc, ip 
        ldr     ip, [ip]
        blx     ip 
.L_ZNK20PlayerInventoryProxy7getItemEi11ContainerID3:
        .align  2
.L_ZNK20PlayerInventoryProxy7getItemEi11ContainerID2:
        .word   bl_addr__ZNK20PlayerInventoryProxy7getItemEi11ContainerID-(.L_ZNK20PlayerInventoryProxy7getItemEi11ContainerIDPIC0+8)
        .size   _ZNK20PlayerInventoryProxy7getItemEi11ContainerID, .-_ZNK20PlayerInventoryProxy7getItemEi11ContainerID
        .hidden bl_addr__ZNK20PlayerInventoryProxy7getItemEi11ContainerID


        .global _ZN14ClientInstance13getServerDataEv 
        .type   _ZN14ClientInstance13getServerDataEv, %function
_ZN14ClientInstance13getServerDataEv:
        ldr     ip, .L_ZN14ClientInstance13getServerDataEv2
.L_ZN14ClientInstance13getServerDataEvPIC0:
        add     ip, pc, ip 
        ldr     ip, [ip]
        blx     ip 
.L_ZN14ClientInstance13getServerDataEv3:
        .align  2
.L_ZN14ClientInstance13getServerDataEv2:
        .word   bl_addr__ZN14ClientInstance13getServerDataEv-(.L_ZN14ClientInstance13getServerDataEvPIC0+8)
        .size   _ZN14ClientInstance13getServerDataEv, .-_ZN14ClientInstance13getServerDataEv
        .hidden bl_addr__ZN14ClientInstance13getServerDataEv


        .global _ZN9Minecraft8getTimerEv 
        .type   _ZN9Minecraft8getTimerEv, %function
_ZN9Minecraft8getTimerEv:
        ldr     ip, .L_ZN9Minecraft8getTimerEv2
.L_ZN9Minecraft8getTimerEvPIC0:
        add     ip, pc, ip 
        ldr     ip, [ip]
        blx     ip 
.L_ZN9Minecraft8getTimerEv3:
        .align  2
.L_ZN9Minecraft8getTimerEv2:
        .word   bl_addr__ZN9Minecraft8getTimerEv-(.L_ZN9Minecraft8getTimerEvPIC0+8)
        .size   _ZN9Minecraft8getTimerEv, .-_ZN9Minecraft8getTimerEv
        .hidden bl_addr__ZN9Minecraft8getTimerEv


        .global _ZNK20PlayerInventoryProxy15getSelectedSlotEv 
        .type   _ZNK20PlayerInventoryProxy15getSelectedSlotEv, %function
_ZNK20PlayerInventoryProxy15getSelectedSlotEv:
        ldr     ip, .L_ZNK20PlayerInventoryProxy15getSelectedSlotEv2
.L_ZNK20PlayerInventoryProxy15getSelectedSlotEvPIC0:
        add     ip, pc, ip 
        ldr     ip, [ip]
        blx     ip 
.L_ZNK20PlayerInventoryProxy15getSelectedSlotEv3:
        .align  2
.L_ZNK20PlayerInventoryProxy15getSelectedSlotEv2:
        .word   bl_addr__ZNK20PlayerInventoryProxy15getSelectedSlotEv-(.L_ZNK20PlayerInventoryProxy15getSelectedSlotEvPIC0+8)
        .size   _ZNK20PlayerInventoryProxy15getSelectedSlotEv, .-_ZNK20PlayerInventoryProxy15getSelectedSlotEv
        .hidden bl_addr__ZNK20PlayerInventoryProxy15getSelectedSlotEv


        .global _ZN20PlayerInventoryProxy10selectSlotEi11ContainerID 
        .type   _ZN20PlayerInventoryProxy10selectSlotEi11ContainerID, %function
_ZN20PlayerInventoryProxy10selectSlotEi11ContainerID:
        ldr     ip, .L_ZN20PlayerInventoryProxy10selectSlotEi11ContainerID2
.L_ZN20PlayerInventoryProxy10selectSlotEi11ContainerIDPIC0:
        add     ip, pc, ip 
        ldr     ip, [ip]
        blx     ip 
.L_ZN20PlayerInventoryProxy10selectSlotEi11ContainerID3:
        .align  2
.L_ZN20PlayerInventoryProxy10selectSlotEi11ContainerID2:
        .word   bl_addr__ZN20PlayerInventoryProxy10selectSlotEi11ContainerID-(.L_ZN20PlayerInventoryProxy10selectSlotEi11ContainerIDPIC0+8)
        .size   _ZN20PlayerInventoryProxy10selectSlotEi11ContainerID, .-_ZN20PlayerInventoryProxy10selectSlotEi11ContainerID
        .hidden bl_addr__ZN20PlayerInventoryProxy10selectSlotEi11ContainerID


        .global _ZNK5Actor8getArmorE9ArmorSlot 
        .type   _ZNK5Actor8getArmorE9ArmorSlot, %function
_ZNK5Actor8getArmorE9ArmorSlot:
        ldr     ip, .L_ZNK5Actor8getArmorE9ArmorSlot2
.L_ZNK5Actor8getArmorE9ArmorSlotPIC0:
        add     ip, pc, ip 
        ldr     ip, [ip]
        blx     ip 
.L_ZNK5Actor8getArmorE9ArmorSlot3:
        .align  2
.L_ZNK5Actor8getArmorE9ArmorSlot2:
        .word   bl_addr__ZNK5Actor8getArmorE9ArmorSlot-(.L_ZNK5Actor8getArmorE9ArmorSlotPIC0+8)
        .size   _ZNK5Actor8getArmorE9ArmorSlot, .-_ZNK5Actor8getArmorE9ArmorSlot
        .hidden bl_addr__ZNK5Actor8getArmorE9ArmorSlot


        .global _ZN8GameMode12destroyBlockERK8BlockPosh 
        .type   _ZN8GameMode12destroyBlockERK8BlockPosh, %function
_ZN8GameMode12destroyBlockERK8BlockPosh:
        ldr     ip, .L_ZN8GameMode12destroyBlockERK8BlockPosh2
.L_ZN8GameMode12destroyBlockERK8BlockPoshPIC0:
        add     ip, pc, ip 
        ldr     ip, [ip]
        blx     ip 
.L_ZN8GameMode12destroyBlockERK8BlockPosh3:
        .align  2
.L_ZN8GameMode12destroyBlockERK8BlockPosh2:
        .word   bl_addr__ZN8GameMode12destroyBlockERK8BlockPosh-(.L_ZN8GameMode12destroyBlockERK8BlockPoshPIC0+8)
        .size   _ZN8GameMode12destroyBlockERK8BlockPosh, .-_ZN8GameMode12destroyBlockERK8BlockPosh
        .hidden bl_addr__ZN8GameMode12destroyBlockERK8BlockPosh


        .global _ZN20PlayerInventoryProxy14removeResourceERK9ItemStackbbi 
        .type   _ZN20PlayerInventoryProxy14removeResourceERK9ItemStackbbi, %function
_ZN20PlayerInventoryProxy14removeResourceERK9ItemStackbbi:
        ldr     ip, .L_ZN20PlayerInventoryProxy14removeResourceERK9ItemStackbbi2
.L_ZN20PlayerInventoryProxy14removeResourceERK9ItemStackbbiPIC0:
        add     ip, pc, ip 
        ldr     ip, [ip]
        blx     ip 
.L_ZN20PlayerInventoryProxy14removeResourceERK9ItemStackbbi3:
        .align  2
.L_ZN20PlayerInventoryProxy14removeResourceERK9ItemStackbbi2:
        .word   bl_addr__ZN20PlayerInventoryProxy14removeResourceERK9ItemStackbbi-(.L_ZN20PlayerInventoryProxy14removeResourceERK9ItemStackbbiPIC0+8)
        .size   _ZN20PlayerInventoryProxy14removeResourceERK9ItemStackbbi, .-_ZN20PlayerInventoryProxy14removeResourceERK9ItemStackbbi
        .hidden bl_addr__ZN20PlayerInventoryProxy14removeResourceERK9ItemStackbbi


        .global _ZN20PlayerInventoryProxy3addER9ItemStackb 
        .type   _ZN20PlayerInventoryProxy3addER9ItemStackb, %function
_ZN20PlayerInventoryProxy3addER9ItemStackb:
        ldr     ip, .L_ZN20PlayerInventoryProxy3addER9ItemStackb2
.L_ZN20PlayerInventoryProxy3addER9ItemStackbPIC0:
        add     ip, pc, ip 
        ldr     ip, [ip]
        blx     ip 
.L_ZN20PlayerInventoryProxy3addER9ItemStackb3:
        .align  2
.L_ZN20PlayerInventoryProxy3addER9ItemStackb2:
        .word   bl_addr__ZN20PlayerInventoryProxy3addER9ItemStackb-(.L_ZN20PlayerInventoryProxy3addER9ItemStackbPIC0+8)
        .size   _ZN20PlayerInventoryProxy3addER9ItemStackb, .-_ZN20PlayerInventoryProxy3addER9ItemStackb
        .hidden bl_addr__ZN20PlayerInventoryProxy3addER9ItemStackb


        .global _ZN20PlayerInventoryProxy7setItemEiRK9ItemStack11ContainerID 
        .type   _ZN20PlayerInventoryProxy7setItemEiRK9ItemStack11ContainerID, %function
_ZN20PlayerInventoryProxy7setItemEiRK9ItemStack11ContainerID:
        ldr     ip, .L_ZN20PlayerInventoryProxy7setItemEiRK9ItemStack11ContainerID2
.L_ZN20PlayerInventoryProxy7setItemEiRK9ItemStack11ContainerIDPIC0:
        add     ip, pc, ip 
        ldr     ip, [ip]
        blx     ip 
.L_ZN20PlayerInventoryProxy7setItemEiRK9ItemStack11ContainerID3:
        .align  2
.L_ZN20PlayerInventoryProxy7setItemEiRK9ItemStack11ContainerID2:
        .word   bl_addr__ZN20PlayerInventoryProxy7setItemEiRK9ItemStack11ContainerID-(.L_ZN20PlayerInventoryProxy7setItemEiRK9ItemStack11ContainerIDPIC0+8)
        .size   _ZN20PlayerInventoryProxy7setItemEiRK9ItemStack11ContainerID, .-_ZN20PlayerInventoryProxy7setItemEiRK9ItemStack11ContainerID
        .hidden bl_addr__ZN20PlayerInventoryProxy7setItemEiRK9ItemStack11ContainerID


        .global _ZN17FurnaceBlockActor7setItemEiRK9ItemStack 
        .type   _ZN17FurnaceBlockActor7setItemEiRK9ItemStack, %function
_ZN17FurnaceBlockActor7setItemEiRK9ItemStack:
        ldr     ip, .L_ZN17FurnaceBlockActor7setItemEiRK9ItemStack2
.L_ZN17FurnaceBlockActor7setItemEiRK9ItemStackPIC0:
        add     ip, pc, ip 
        ldr     ip, [ip]
        blx     ip 
.L_ZN17FurnaceBlockActor7setItemEiRK9ItemStack3:
        .align  2
.L_ZN17FurnaceBlockActor7setItemEiRK9ItemStack2:
        .word   bl_addr__ZN17FurnaceBlockActor7setItemEiRK9ItemStack-(.L_ZN17FurnaceBlockActor7setItemEiRK9ItemStackPIC0+8)
        .size   _ZN17FurnaceBlockActor7setItemEiRK9ItemStack, .-_ZN17FurnaceBlockActor7setItemEiRK9ItemStack
        .hidden bl_addr__ZN17FurnaceBlockActor7setItemEiRK9ItemStack


        .global _ZN4ItemD2Ev 
        .type   _ZN4ItemD2Ev, %function
_ZN4ItemD2Ev:
        ldr     ip, .L_ZN4ItemD2Ev2
.L_ZN4ItemD2EvPIC0:
        add     ip, pc, ip 
        ldr     ip, [ip]
        blx     ip 
.L_ZN4ItemD2Ev3:
        .align  2
.L_ZN4ItemD2Ev2:
        .word   bl_addr__ZN4ItemD2Ev-(.L_ZN4ItemD2EvPIC0+8)
        .size   _ZN4ItemD2Ev, .-_ZN4ItemD2Ev
        .hidden bl_addr__ZN4ItemD2Ev


        .global _ZN12ItemRegistry7getItemEs 
        .type   _ZN12ItemRegistry7getItemEs, %function
_ZN12ItemRegistry7getItemEs:
        ldr     ip, .L_ZN12ItemRegistry7getItemEs2
.L_ZN12ItemRegistry7getItemEsPIC0:
        add     ip, pc, ip 
        ldr     ip, [ip]
        blx     ip 
.L_ZN12ItemRegistry7getItemEs3:
        .align  2
.L_ZN12ItemRegistry7getItemEs2:
        .word   bl_addr__ZN12ItemRegistry7getItemEs-(.L_ZN12ItemRegistry7getItemEsPIC0+8)
        .size   _ZN12ItemRegistry7getItemEs, .-_ZN12ItemRegistry7getItemEs
        .hidden bl_addr__ZN12ItemRegistry7getItemEs


        .global _ZN4Item10initServerERN4Json5ValueE 
        .type   _ZN4Item10initServerERN4Json5ValueE, %function
_ZN4Item10initServerERN4Json5ValueE:
        ldr     ip, .L_ZN4Item10initServerERN4Json5ValueE2
.L_ZN4Item10initServerERN4Json5ValueEPIC0:
        add     ip, pc, ip 
        ldr     ip, [ip]
        blx     ip 
.L_ZN4Item10initServerERN4Json5ValueE3:
        .align  2
.L_ZN4Item10initServerERN4Json5ValueE2:
        .word   bl_addr__ZN4Item10initServerERN4Json5ValueE-(.L_ZN4Item10initServerERN4Json5ValueEPIC0+8)
        .size   _ZN4Item10initServerERN4Json5ValueE, .-_ZN4Item10initServerERN4Json5ValueE
        .hidden bl_addr__ZN4Item10initServerERN4Json5ValueE


        .global _ZN4Item10initClientERN4Json5ValueES2_ 
        .type   _ZN4Item10initClientERN4Json5ValueES2_, %function
_ZN4Item10initClientERN4Json5ValueES2_:
        ldr     ip, .L_ZN4Item10initClientERN4Json5ValueES2_2
.L_ZN4Item10initClientERN4Json5ValueES2_PIC0:
        add     ip, pc, ip 
        ldr     ip, [ip]
        blx     ip 
.L_ZN4Item10initClientERN4Json5ValueES2_3:
        .align  2
.L_ZN4Item10initClientERN4Json5ValueES2_2:
        .word   bl_addr__ZN4Item10initClientERN4Json5ValueES2_-(.L_ZN4Item10initClientERN4Json5ValueES2_PIC0+8)
        .size   _ZN4Item10initClientERN4Json5ValueES2_, .-_ZN4Item10initClientERN4Json5ValueES2_
        .hidden bl_addr__ZN4Item10initClientERN4Json5ValueES2_


        .global _ZN4Item17initCreativeItemsEbP17ActorInfoRegistryP20BlockDefinitionGroupbSt8functionIFvS1_S3_bEE 
        .type   _ZN4Item17initCreativeItemsEbP17ActorInfoRegistryP20BlockDefinitionGroupbSt8functionIFvS1_S3_bEE, %function
_ZN4Item17initCreativeItemsEbP17ActorInfoRegistryP20BlockDefinitionGroupbSt8functionIFvS1_S3_bEE:
        ldr     ip, .L_ZN4Item17initCreativeItemsEbP17ActorInfoRegistryP20BlockDefinitionGroupbSt8functionIFvS1_S3_bEE2
.L_ZN4Item17initCreativeItemsEbP17ActorInfoRegistryP20BlockDefinitionGroupbSt8functionIFvS1_S3_bEEPIC0:
        add     ip, pc, ip 
        ldr     ip, [ip]
        blx     ip 
.L_ZN4Item17initCreativeItemsEbP17ActorInfoRegistryP20BlockDefinitionGroupbSt8functionIFvS1_S3_bEE3:
        .align  2
.L_ZN4Item17initCreativeItemsEbP17ActorInfoRegistryP20BlockDefinitionGroupbSt8functionIFvS1_S3_bEE2:
        .word   bl_addr__ZN4Item17initCreativeItemsEbP17ActorInfoRegistryP20BlockDefinitionGroupbSt8functionIFvS1_S3_bEE-(.L_ZN4Item17initCreativeItemsEbP17ActorInfoRegistryP20BlockDefinitionGroupbSt8functionIFvS1_S3_bEEPIC0+8)
        .size   _ZN4Item17initCreativeItemsEbP17ActorInfoRegistryP20BlockDefinitionGroupbSt8functionIFvS1_S3_bEE, .-_ZN4Item17initCreativeItemsEbP17ActorInfoRegistryP20BlockDefinitionGroupbSt8functionIFvS1_S3_bEE
        .hidden bl_addr__ZN4Item17initCreativeItemsEbP17ActorInfoRegistryP20BlockDefinitionGroupbSt8functionIFvS1_S3_bEE


        .global _ZNK14ItemDescriptor5getIdEv 
        .type   _ZNK14ItemDescriptor5getIdEv, %function
_ZNK14ItemDescriptor5getIdEv:
        ldr     ip, .L_ZNK14ItemDescriptor5getIdEv2
.L_ZNK14ItemDescriptor5getIdEvPIC0:
        add     ip, pc, ip 
        ldr     ip, [ip]
        blx     ip 
.L_ZNK14ItemDescriptor5getIdEv3:
        .align  2
.L_ZNK14ItemDescriptor5getIdEv2:
        .word   bl_addr__ZNK14ItemDescriptor5getIdEv-(.L_ZNK14ItemDescriptor5getIdEvPIC0+8)
        .size   _ZNK14ItemDescriptor5getIdEv, .-_ZNK14ItemDescriptor5getIdEv
        .hidden bl_addr__ZNK14ItemDescriptor5getIdEv


        .global _ZN20MinecraftScreenModel17updateTextBoxTextERKSs 
        .type   _ZN20MinecraftScreenModel17updateTextBoxTextERKSs, %function
_ZN20MinecraftScreenModel17updateTextBoxTextERKSs:
        ldr     ip, .L_ZN20MinecraftScreenModel17updateTextBoxTextERKSs2
.L_ZN20MinecraftScreenModel17updateTextBoxTextERKSsPIC0:
        add     ip, pc, ip 
        ldr     ip, [ip]
        blx     ip 
.L_ZN20MinecraftScreenModel17updateTextBoxTextERKSs3:
        .align  2
.L_ZN20MinecraftScreenModel17updateTextBoxTextERKSs2:
        .word   bl_addr__ZN20MinecraftScreenModel17updateTextBoxTextERKSs-(.L_ZN20MinecraftScreenModel17updateTextBoxTextERKSsPIC0+8)
        .size   _ZN20MinecraftScreenModel17updateTextBoxTextERKSs, .-_ZN20MinecraftScreenModel17updateTextBoxTextERKSs
        .hidden bl_addr__ZN20MinecraftScreenModel17updateTextBoxTextERKSs


        .global _ZN25ClientInstanceScreenModel15sendChatMessageERKSs 
        .type   _ZN25ClientInstanceScreenModel15sendChatMessageERKSs, %function
_ZN25ClientInstanceScreenModel15sendChatMessageERKSs:
        ldr     ip, .L_ZN25ClientInstanceScreenModel15sendChatMessageERKSs2
.L_ZN25ClientInstanceScreenModel15sendChatMessageERKSsPIC0:
        add     ip, pc, ip 
        ldr     ip, [ip]
        blx     ip 
.L_ZN25ClientInstanceScreenModel15sendChatMessageERKSs3:
        .align  2
.L_ZN25ClientInstanceScreenModel15sendChatMessageERKSs2:
        .word   bl_addr__ZN25ClientInstanceScreenModel15sendChatMessageERKSs-(.L_ZN25ClientInstanceScreenModel15sendChatMessageERKSsPIC0+8)
        .size   _ZN25ClientInstanceScreenModel15sendChatMessageERKSs, .-_ZN25ClientInstanceScreenModel15sendChatMessageERKSs
        .hidden bl_addr__ZN25ClientInstanceScreenModel15sendChatMessageERKSs


        .global _ZN25ClientInstanceScreenModel14executeCommandERKSs 
        .type   _ZN25ClientInstanceScreenModel14executeCommandERKSs, %function
_ZN25ClientInstanceScreenModel14executeCommandERKSs:
        ldr     ip, .L_ZN25ClientInstanceScreenModel14executeCommandERKSs2
.L_ZN25ClientInstanceScreenModel14executeCommandERKSsPIC0:
        add     ip, pc, ip 
        ldr     ip, [ip]
        blx     ip 
.L_ZN25ClientInstanceScreenModel14executeCommandERKSs3:
        .align  2
.L_ZN25ClientInstanceScreenModel14executeCommandERKSs2:
        .word   bl_addr__ZN25ClientInstanceScreenModel14executeCommandERKSs-(.L_ZN25ClientInstanceScreenModel14executeCommandERKSsPIC0+8)
        .size   _ZN25ClientInstanceScreenModel14executeCommandERKSs, .-_ZN25ClientInstanceScreenModel14executeCommandERKSs
        .hidden bl_addr__ZN25ClientInstanceScreenModel14executeCommandERKSs


        .global _ZNK5Level11fetchEntityE13ActorUniqueIDb 
        .type   _ZNK5Level11fetchEntityE13ActorUniqueIDb, %function
_ZNK5Level11fetchEntityE13ActorUniqueIDb:
        ldr     ip, .L_ZNK5Level11fetchEntityE13ActorUniqueIDb2
.L_ZNK5Level11fetchEntityE13ActorUniqueIDbPIC0:
        add     ip, pc, ip 
        ldr     ip, [ip]
        blx     ip 
.L_ZNK5Level11fetchEntityE13ActorUniqueIDb3:
        .align  2
.L_ZNK5Level11fetchEntityE13ActorUniqueIDb2:
        .word   bl_addr__ZNK5Level11fetchEntityE13ActorUniqueIDb-(.L_ZNK5Level11fetchEntityE13ActorUniqueIDbPIC0+8)
        .size   _ZNK5Level11fetchEntityE13ActorUniqueIDb, .-_ZNK5Level11fetchEntityE13ActorUniqueIDb
        .hidden bl_addr__ZNK5Level11fetchEntityE13ActorUniqueIDb


        .global _ZN14ClientInstance10getGuiDataEv 
        .type   _ZN14ClientInstance10getGuiDataEv, %function
_ZN14ClientInstance10getGuiDataEv:
        ldr     ip, .L_ZN14ClientInstance10getGuiDataEv2
.L_ZN14ClientInstance10getGuiDataEvPIC0:
        add     ip, pc, ip 
        ldr     ip, [ip]
        blx     ip 
.L_ZN14ClientInstance10getGuiDataEv3:
        .align  2
.L_ZN14ClientInstance10getGuiDataEv2:
        .word   bl_addr__ZN14ClientInstance10getGuiDataEv-(.L_ZN14ClientInstance10getGuiDataEvPIC0+8)
        .size   _ZN14ClientInstance10getGuiDataEv, .-_ZN14ClientInstance10getGuiDataEv
        .hidden bl_addr__ZN14ClientInstance10getGuiDataEv


        .global _ZN7GuiData20displayClientMessageERKSs 
        .type   _ZN7GuiData20displayClientMessageERKSs, %function
_ZN7GuiData20displayClientMessageERKSs:
        ldr     ip, .L_ZN7GuiData20displayClientMessageERKSs2
.L_ZN7GuiData20displayClientMessageERKSsPIC0:
        add     ip, pc, ip 
        ldr     ip, [ip]
        blx     ip 
.L_ZN7GuiData20displayClientMessageERKSs3:
        .align  2
.L_ZN7GuiData20displayClientMessageERKSs2:
        .word   bl_addr__ZN7GuiData20displayClientMessageERKSs-(.L_ZN7GuiData20displayClientMessageERKSsPIC0+8)
        .size   _ZN7GuiData20displayClientMessageERKSs, .-_ZN7GuiData20displayClientMessageERKSs
        .hidden bl_addr__ZN7GuiData20displayClientMessageERKSs


        .global _ZN12ItemRenderer17forceGraphicsLoadEv 
        .type   _ZN12ItemRenderer17forceGraphicsLoadEv, %function
_ZN12ItemRenderer17forceGraphicsLoadEv:
        ldr     ip, .L_ZN12ItemRenderer17forceGraphicsLoadEv2
.L_ZN12ItemRenderer17forceGraphicsLoadEvPIC0:
        add     ip, pc, ip 
        ldr     ip, [ip]
        blx     ip 
.L_ZN12ItemRenderer17forceGraphicsLoadEv3:
        .align  2
.L_ZN12ItemRenderer17forceGraphicsLoadEv2:
        .word   bl_addr__ZN12ItemRenderer17forceGraphicsLoadEv-(.L_ZN12ItemRenderer17forceGraphicsLoadEvPIC0+8)
        .size   _ZN12ItemRenderer17forceGraphicsLoadEv, .-_ZN12ItemRenderer17forceGraphicsLoadEv
        .hidden bl_addr__ZN12ItemRenderer17forceGraphicsLoadEv


        .global _ZN4Item16setStackedByDataEb 
        .type   _ZN4Item16setStackedByDataEb, %function
_ZN4Item16setStackedByDataEb:
        ldr     ip, .L_ZN4Item16setStackedByDataEb2
.L_ZN4Item16setStackedByDataEbPIC0:
        add     ip, pc, ip 
        ldr     ip, [ip]
        blx     ip 
.L_ZN4Item16setStackedByDataEb3:
        .align  2
.L_ZN4Item16setStackedByDataEb2:
        .word   bl_addr__ZN4Item16setStackedByDataEb-(.L_ZN4Item16setStackedByDataEbPIC0+8)
        .size   _ZN4Item16setStackedByDataEb, .-_ZN4Item16setStackedByDataEb
        .hidden bl_addr__ZN4Item16setStackedByDataEb


        .global _ZN12VanillaItems13registerItemsEb 
        .type   _ZN12VanillaItems13registerItemsEb, %function
_ZN12VanillaItems13registerItemsEb:
        ldr     ip, .L_ZN12VanillaItems13registerItemsEb2
.L_ZN12VanillaItems13registerItemsEbPIC0:
        add     ip, pc, ip 
        ldr     ip, [ip]
        blx     ip 
.L_ZN12VanillaItems13registerItemsEb3:
        .align  2
.L_ZN12VanillaItems13registerItemsEb2:
        .word   bl_addr__ZN12VanillaItems13registerItemsEb-(.L_ZN12VanillaItems13registerItemsEbPIC0+8)
        .size   _ZN12VanillaItems13registerItemsEb, .-_ZN12VanillaItems13registerItemsEb
        .hidden bl_addr__ZN12VanillaItems13registerItemsEb


        .global _ZNK4Item12getMaxDamageEv 
        .type   _ZNK4Item12getMaxDamageEv, %function
_ZNK4Item12getMaxDamageEv:
        ldr     ip, .L_ZNK4Item12getMaxDamageEv2
.L_ZNK4Item12getMaxDamageEvPIC0:
        add     ip, pc, ip 
        ldr     ip, [ip]
        blx     ip 
.L_ZNK4Item12getMaxDamageEv3:
        .align  2
.L_ZNK4Item12getMaxDamageEv2:
        .word   bl_addr__ZNK4Item12getMaxDamageEv-(.L_ZNK4Item12getMaxDamageEvPIC0+8)
        .size   _ZNK4Item12getMaxDamageEv, .-_ZNK4Item12getMaxDamageEv
        .hidden bl_addr__ZNK4Item12getMaxDamageEv


        .global _ZN14ClientInstance15_startLeaveGameEv 
        .type   _ZN14ClientInstance15_startLeaveGameEv, %function
_ZN14ClientInstance15_startLeaveGameEv:
        ldr     ip, .L_ZN14ClientInstance15_startLeaveGameEv2
.L_ZN14ClientInstance15_startLeaveGameEvPIC0:
        add     ip, pc, ip 
        ldr     ip, [ip]
        blx     ip 
.L_ZN14ClientInstance15_startLeaveGameEv3:
        .align  2
.L_ZN14ClientInstance15_startLeaveGameEv2:
        .word   bl_addr__ZN14ClientInstance15_startLeaveGameEv-(.L_ZN14ClientInstance15_startLeaveGameEvPIC0+8)
        .size   _ZN14ClientInstance15_startLeaveGameEv, .-_ZN14ClientInstance15_startLeaveGameEv
        .hidden bl_addr__ZN14ClientInstance15_startLeaveGameEv


        .global _ZN14ClientInstance4playERKSsRK4Vec3ff 
        .type   _ZN14ClientInstance4playERKSsRK4Vec3ff, %function
_ZN14ClientInstance4playERKSsRK4Vec3ff:
        ldr     ip, .L_ZN14ClientInstance4playERKSsRK4Vec3ff2
.L_ZN14ClientInstance4playERKSsRK4Vec3ffPIC0:
        add     ip, pc, ip 
        ldr     ip, [ip]
        blx     ip 
.L_ZN14ClientInstance4playERKSsRK4Vec3ff3:
        .align  2
.L_ZN14ClientInstance4playERKSsRK4Vec3ff2:
        .word   bl_addr__ZN14ClientInstance4playERKSsRK4Vec3ff-(.L_ZN14ClientInstance4playERKSsRK4Vec3ffPIC0+8)
        .size   _ZN14ClientInstance4playERKSsRK4Vec3ff, .-_ZN14ClientInstance4playERKSsRK4Vec3ff
        .hidden bl_addr__ZN14ClientInstance4playERKSsRK4Vec3ff


        .global _ZN14SignBlockActor10setMessageESsSs 
        .type   _ZN14SignBlockActor10setMessageESsSs, %function
_ZN14SignBlockActor10setMessageESsSs:
        ldr     ip, .L_ZN14SignBlockActor10setMessageESsSs2
.L_ZN14SignBlockActor10setMessageESsSsPIC0:
        add     ip, pc, ip 
        ldr     ip, [ip]
        blx     ip 
.L_ZN14SignBlockActor10setMessageESsSs3:
        .align  2
.L_ZN14SignBlockActor10setMessageESsSs2:
        .word   bl_addr__ZN14SignBlockActor10setMessageESsSs-(.L_ZN14SignBlockActor10setMessageESsSsPIC0+8)
        .size   _ZN14SignBlockActor10setMessageESsSs, .-_ZN14SignBlockActor10setMessageESsSs
        .hidden bl_addr__ZN14SignBlockActor10setMessageESsSs


        .global _ZN10BlockActor10setChangedEv 
        .type   _ZN10BlockActor10setChangedEv, %function
_ZN10BlockActor10setChangedEv:
        ldr     ip, .L_ZN10BlockActor10setChangedEv2
.L_ZN10BlockActor10setChangedEvPIC0:
        add     ip, pc, ip 
        ldr     ip, [ip]
        blx     ip 
.L_ZN10BlockActor10setChangedEv3:
        .align  2
.L_ZN10BlockActor10setChangedEv2:
        .word   bl_addr__ZN10BlockActor10setChangedEv-(.L_ZN10BlockActor10setChangedEvPIC0+8)
        .size   _ZN10BlockActor10setChangedEv, .-_ZN10BlockActor10setChangedEv
        .hidden bl_addr__ZN10BlockActor10setChangedEv


        .global _ZNK4Item15isStackedByDataEv 
        .type   _ZNK4Item15isStackedByDataEv, %function
_ZNK4Item15isStackedByDataEv:
        ldr     ip, .L_ZNK4Item15isStackedByDataEv2
.L_ZNK4Item15isStackedByDataEvPIC0:
        add     ip, pc, ip 
        ldr     ip, [ip]
        blx     ip 
.L_ZNK4Item15isStackedByDataEv3:
        .align  2
.L_ZNK4Item15isStackedByDataEv2:
        .word   bl_addr__ZNK4Item15isStackedByDataEv-(.L_ZNK4Item15isStackedByDataEvPIC0+8)
        .size   _ZNK4Item15isStackedByDataEv, .-_ZNK4Item15isStackedByDataEv
        .hidden bl_addr__ZNK4Item15isStackedByDataEv


        .global _ZNK11BlockLegacy14getRenderLayerEv 
        .type   _ZNK11BlockLegacy14getRenderLayerEv, %function
_ZNK11BlockLegacy14getRenderLayerEv:
        ldr     ip, .L_ZNK11BlockLegacy14getRenderLayerEv2
.L_ZNK11BlockLegacy14getRenderLayerEvPIC0:
        add     ip, pc, ip 
        ldr     ip, [ip]
        blx     ip 
.L_ZNK11BlockLegacy14getRenderLayerEv3:
        .align  2
.L_ZNK11BlockLegacy14getRenderLayerEv2:
        .word   bl_addr__ZNK11BlockLegacy14getRenderLayerEv-(.L_ZNK11BlockLegacy14getRenderLayerEvPIC0+8)
        .size   _ZNK11BlockLegacy14getRenderLayerEv, .-_ZNK11BlockLegacy14getRenderLayerEv
        .hidden bl_addr__ZNK11BlockLegacy14getRenderLayerEv


        .global _ZN7GuiData14showTipMessageERKSs 
        .type   _ZN7GuiData14showTipMessageERKSs, %function
_ZN7GuiData14showTipMessageERKSs:
        ldr     ip, .L_ZN7GuiData14showTipMessageERKSs2
.L_ZN7GuiData14showTipMessageERKSsPIC0:
        add     ip, pc, ip 
        ldr     ip, [ip]
        blx     ip 
.L_ZN7GuiData14showTipMessageERKSs3:
        .align  2
.L_ZN7GuiData14showTipMessageERKSs2:
        .word   bl_addr__ZN7GuiData14showTipMessageERKSs-(.L_ZN7GuiData14showTipMessageERKSsPIC0+8)
        .size   _ZN7GuiData14showTipMessageERKSs, .-_ZN7GuiData14showTipMessageERKSs
        .hidden bl_addr__ZN7GuiData14showTipMessageERKSs


        .global _ZN5Actor17setNameTagVisibleEb 
        .type   _ZN5Actor17setNameTagVisibleEb, %function
_ZN5Actor17setNameTagVisibleEb:
        ldr     ip, .L_ZN5Actor17setNameTagVisibleEb2
.L_ZN5Actor17setNameTagVisibleEbPIC0:
        add     ip, pc, ip 
        ldr     ip, [ip]
        blx     ip 
.L_ZN5Actor17setNameTagVisibleEb3:
        .align  2
.L_ZN5Actor17setNameTagVisibleEb2:
        .word   bl_addr__ZN5Actor17setNameTagVisibleEb-(.L_ZN5Actor17setNameTagVisibleEbPIC0+8)
        .size   _ZN5Actor17setNameTagVisibleEb, .-_ZN5Actor17setNameTagVisibleEb
        .hidden bl_addr__ZN5Actor17setNameTagVisibleEb


        .global _ZNK14ClientInstance19getClientSceneStackEv 
        .type   _ZNK14ClientInstance19getClientSceneStackEv, %function
_ZNK14ClientInstance19getClientSceneStackEv:
        ldr     ip, .L_ZNK14ClientInstance19getClientSceneStackEv2
.L_ZNK14ClientInstance19getClientSceneStackEvPIC0:
        add     ip, pc, ip 
        ldr     ip, [ip]
        blx     ip 
.L_ZNK14ClientInstance19getClientSceneStackEv3:
        .align  2
.L_ZNK14ClientInstance19getClientSceneStackEv2:
        .word   bl_addr__ZNK14ClientInstance19getClientSceneStackEv-(.L_ZNK14ClientInstance19getClientSceneStackEvPIC0+8)
        .size   _ZNK14ClientInstance19getClientSceneStackEv, .-_ZNK14ClientInstance19getClientSceneStackEv
        .hidden bl_addr__ZNK14ClientInstance19getClientSceneStackEv


        .global _ZNK14ClientInstance15getSceneFactoryEv 
        .type   _ZNK14ClientInstance15getSceneFactoryEv, %function
_ZNK14ClientInstance15getSceneFactoryEv:
        ldr     ip, .L_ZNK14ClientInstance15getSceneFactoryEv2
.L_ZNK14ClientInstance15getSceneFactoryEvPIC0:
        add     ip, pc, ip 
        ldr     ip, [ip]
        blx     ip 
.L_ZNK14ClientInstance15getSceneFactoryEv3:
        .align  2
.L_ZNK14ClientInstance15getSceneFactoryEv2:
        .word   bl_addr__ZNK14ClientInstance15getSceneFactoryEv-(.L_ZNK14ClientInstance15getSceneFactoryEvPIC0+8)
        .size   _ZNK14ClientInstance15getSceneFactoryEv, .-_ZNK14ClientInstance15getSceneFactoryEv
        .hidden bl_addr__ZNK14ClientInstance15getSceneFactoryEv


        .global _ZN25ClientInstanceScreenModelC1ER14IMinecraftGameR15IClientInstanceR10SceneStackR12SceneFactory 
        .type   _ZN25ClientInstanceScreenModelC1ER14IMinecraftGameR15IClientInstanceR10SceneStackR12SceneFactory, %function
_ZN25ClientInstanceScreenModelC1ER14IMinecraftGameR15IClientInstanceR10SceneStackR12SceneFactory:
        ldr     ip, .L_ZN25ClientInstanceScreenModelC1ER14IMinecraftGameR15IClientInstanceR10SceneStackR12SceneFactory2
.L_ZN25ClientInstanceScreenModelC1ER14IMinecraftGameR15IClientInstanceR10SceneStackR12SceneFactoryPIC0:
        add     ip, pc, ip 
        ldr     ip, [ip]
        blx     ip 
.L_ZN25ClientInstanceScreenModelC1ER14IMinecraftGameR15IClientInstanceR10SceneStackR12SceneFactory3:
        .align  2
.L_ZN25ClientInstanceScreenModelC1ER14IMinecraftGameR15IClientInstanceR10SceneStackR12SceneFactory2:
        .word   bl_addr__ZN25ClientInstanceScreenModelC1ER14IMinecraftGameR15IClientInstanceR10SceneStackR12SceneFactory-(.L_ZN25ClientInstanceScreenModelC1ER14IMinecraftGameR15IClientInstanceR10SceneStackR12SceneFactoryPIC0+8)
        .size   _ZN25ClientInstanceScreenModelC1ER14IMinecraftGameR15IClientInstanceR10SceneStackR12SceneFactory, .-_ZN25ClientInstanceScreenModelC1ER14IMinecraftGameR15IClientInstanceR10SceneStackR12SceneFactory
        .hidden bl_addr__ZN25ClientInstanceScreenModelC1ER14IMinecraftGameR15IClientInstanceR10SceneStackR12SceneFactory


        .global _ZNK5Actor7getRideEv 
        .type   _ZNK5Actor7getRideEv, %function
_ZNK5Actor7getRideEv:
        ldr     ip, .L_ZNK5Actor7getRideEv2
.L_ZNK5Actor7getRideEvPIC0:
        add     ip, pc, ip 
        ldr     ip, [ip]
        blx     ip 
.L_ZNK5Actor7getRideEv3:
        .align  2
.L_ZNK5Actor7getRideEv2:
        .word   bl_addr__ZNK5Actor7getRideEv-(.L_ZNK5Actor7getRideEvPIC0+8)
        .size   _ZNK5Actor7getRideEv, .-_ZNK5Actor7getRideEv
        .hidden bl_addr__ZNK5Actor7getRideEv


        .global _ZN14ClientInstance15setCameraEntityEP5Actor 
        .type   _ZN14ClientInstance15setCameraEntityEP5Actor, %function
_ZN14ClientInstance15setCameraEntityEP5Actor:
        ldr     ip, .L_ZN14ClientInstance15setCameraEntityEP5Actor2
.L_ZN14ClientInstance15setCameraEntityEP5ActorPIC0:
        add     ip, pc, ip 
        ldr     ip, [ip]
        blx     ip 
.L_ZN14ClientInstance15setCameraEntityEP5Actor3:
        .align  2
.L_ZN14ClientInstance15setCameraEntityEP5Actor2:
        .word   bl_addr__ZN14ClientInstance15setCameraEntityEP5Actor-(.L_ZN14ClientInstance15setCameraEntityEP5ActorPIC0+8)
        .size   _ZN14ClientInstance15setCameraEntityEP5Actor, .-_ZN14ClientInstance15setCameraEntityEP5Actor
        .hidden bl_addr__ZN14ClientInstance15setCameraEntityEP5Actor


        .global _ZN14ClientInstance8getLevelEv 
        .type   _ZN14ClientInstance8getLevelEv, %function
_ZN14ClientInstance8getLevelEv:
        ldr     ip, .L_ZN14ClientInstance8getLevelEv2
.L_ZN14ClientInstance8getLevelEvPIC0:
        add     ip, pc, ip 
        ldr     ip, [ip]
        blx     ip 
.L_ZN14ClientInstance8getLevelEv3:
        .align  2
.L_ZN14ClientInstance8getLevelEv2:
        .word   bl_addr__ZN14ClientInstance8getLevelEv-(.L_ZN14ClientInstance8getLevelEvPIC0+8)
        .size   _ZN14ClientInstance8getLevelEv, .-_ZN14ClientInstance8getLevelEv
        .hidden bl_addr__ZN14ClientInstance8getLevelEv


        .global _ZN5Level11addParticleE12ParticleTypeRK4Vec3S3_iPK11CompoundTagb 
        .type   _ZN5Level11addParticleE12ParticleTypeRK4Vec3S3_iPK11CompoundTagb, %function
_ZN5Level11addParticleE12ParticleTypeRK4Vec3S3_iPK11CompoundTagb:
        ldr     ip, .L_ZN5Level11addParticleE12ParticleTypeRK4Vec3S3_iPK11CompoundTagb2
.L_ZN5Level11addParticleE12ParticleTypeRK4Vec3S3_iPK11CompoundTagbPIC0:
        add     ip, pc, ip 
        ldr     ip, [ip]
        blx     ip 
.L_ZN5Level11addParticleE12ParticleTypeRK4Vec3S3_iPK11CompoundTagb3:
        .align  2
.L_ZN5Level11addParticleE12ParticleTypeRK4Vec3S3_iPK11CompoundTagb2:
        .word   bl_addr__ZN5Level11addParticleE12ParticleTypeRK4Vec3S3_iPK11CompoundTagb-(.L_ZN5Level11addParticleE12ParticleTypeRK4Vec3S3_iPK11CompoundTagbPIC0+8)
        .size   _ZN5Level11addParticleE12ParticleTypeRK4Vec3S3_iPK11CompoundTagb, .-_ZN5Level11addParticleE12ParticleTypeRK4Vec3S3_iPK11CompoundTagb
        .hidden bl_addr__ZN5Level11addParticleE12ParticleTypeRK4Vec3S3_iPK11CompoundTagb


        .global _ZN5Level12getHitResultEv 
        .type   _ZN5Level12getHitResultEv, %function
_ZN5Level12getHitResultEv:
        ldr     ip, .L_ZN5Level12getHitResultEv2
.L_ZN5Level12getHitResultEvPIC0:
        add     ip, pc, ip 
        ldr     ip, [ip]
        blx     ip 
.L_ZN5Level12getHitResultEv3:
        .align  2
.L_ZN5Level12getHitResultEv2:
        .word   bl_addr__ZN5Level12getHitResultEv-(.L_ZN5Level12getHitResultEvPIC0+8)
        .size   _ZN5Level12getHitResultEv, .-_ZN5Level12getHitResultEv
        .hidden bl_addr__ZN5Level12getHitResultEv


        .global _ZN11BlockSource8getBiomeERK8BlockPos 
        .type   _ZN11BlockSource8getBiomeERK8BlockPos, %function
_ZN11BlockSource8getBiomeERK8BlockPos:
        ldr     ip, .L_ZN11BlockSource8getBiomeERK8BlockPos2
.L_ZN11BlockSource8getBiomeERK8BlockPosPIC0:
        add     ip, pc, ip 
        ldr     ip, [ip]
        blx     ip 
.L_ZN11BlockSource8getBiomeERK8BlockPos3:
        .align  2
.L_ZN11BlockSource8getBiomeERK8BlockPos2:
        .word   bl_addr__ZN11BlockSource8getBiomeERK8BlockPos-(.L_ZN11BlockSource8getBiomeERK8BlockPosPIC0+8)
        .size   _ZN11BlockSource8getBiomeERK8BlockPos, .-_ZN11BlockSource8getBiomeERK8BlockPos
        .hidden bl_addr__ZN11BlockSource8getBiomeERK8BlockPos


        .global _ZN11BlockSource13setGrassColorEiRK8BlockPosi 
        .type   _ZN11BlockSource13setGrassColorEiRK8BlockPosi, %function
_ZN11BlockSource13setGrassColorEiRK8BlockPosi:
        ldr     ip, .L_ZN11BlockSource13setGrassColorEiRK8BlockPosi2
.L_ZN11BlockSource13setGrassColorEiRK8BlockPosiPIC0:
        add     ip, pc, ip 
        ldr     ip, [ip]
        blx     ip 
.L_ZN11BlockSource13setGrassColorEiRK8BlockPosi3:
        .align  2
.L_ZN11BlockSource13setGrassColorEiRK8BlockPosi2:
        .word   bl_addr__ZN11BlockSource13setGrassColorEiRK8BlockPosi-(.L_ZN11BlockSource13setGrassColorEiRK8BlockPosiPIC0+8)
        .size   _ZN11BlockSource13setGrassColorEiRK8BlockPosi, .-_ZN11BlockSource13setGrassColorEiRK8BlockPosi
        .hidden bl_addr__ZN11BlockSource13setGrassColorEiRK8BlockPosi


        .global _ZN9Abilities18nameToAbilityIndexERKSs 
        .type   _ZN9Abilities18nameToAbilityIndexERKSs, %function
_ZN9Abilities18nameToAbilityIndexERKSs:
        ldr     ip, .L_ZN9Abilities18nameToAbilityIndexERKSs2
.L_ZN9Abilities18nameToAbilityIndexERKSsPIC0:
        add     ip, pc, ip 
        ldr     ip, [ip]
        blx     ip 
.L_ZN9Abilities18nameToAbilityIndexERKSs3:
        .align  2
.L_ZN9Abilities18nameToAbilityIndexERKSs2:
        .word   bl_addr__ZN9Abilities18nameToAbilityIndexERKSs-(.L_ZN9Abilities18nameToAbilityIndexERKSsPIC0+8)
        .size   _ZN9Abilities18nameToAbilityIndexERKSs, .-_ZN9Abilities18nameToAbilityIndexERKSs
        .hidden bl_addr__ZN9Abilities18nameToAbilityIndexERKSs


        .global _ZNK9Abilities7getBoolE14AbilitiesIndex 
        .type   _ZNK9Abilities7getBoolE14AbilitiesIndex, %function
_ZNK9Abilities7getBoolE14AbilitiesIndex:
        ldr     ip, .L_ZNK9Abilities7getBoolE14AbilitiesIndex2
.L_ZNK9Abilities7getBoolE14AbilitiesIndexPIC0:
        add     ip, pc, ip 
        ldr     ip, [ip]
        blx     ip 
.L_ZNK9Abilities7getBoolE14AbilitiesIndex3:
        .align  2
.L_ZNK9Abilities7getBoolE14AbilitiesIndex2:
        .word   bl_addr__ZNK9Abilities7getBoolE14AbilitiesIndex-(.L_ZNK9Abilities7getBoolE14AbilitiesIndexPIC0+8)
        .size   _ZNK9Abilities7getBoolE14AbilitiesIndex, .-_ZNK9Abilities7getBoolE14AbilitiesIndex
        .hidden bl_addr__ZNK9Abilities7getBoolE14AbilitiesIndex


        .global _ZN9Abilities10setAbilityE14AbilitiesIndexb 
        .type   _ZN9Abilities10setAbilityE14AbilitiesIndexb, %function
_ZN9Abilities10setAbilityE14AbilitiesIndexb:
        ldr     ip, .L_ZN9Abilities10setAbilityE14AbilitiesIndexb2
.L_ZN9Abilities10setAbilityE14AbilitiesIndexbPIC0:
        add     ip, pc, ip 
        ldr     ip, [ip]
        blx     ip 
.L_ZN9Abilities10setAbilityE14AbilitiesIndexb3:
        .align  2
.L_ZN9Abilities10setAbilityE14AbilitiesIndexb2:
        .word   bl_addr__ZN9Abilities10setAbilityE14AbilitiesIndexb-(.L_ZN9Abilities10setAbilityE14AbilitiesIndexbPIC0+8)
        .size   _ZN9Abilities10setAbilityE14AbilitiesIndexb, .-_ZN9Abilities10setAbilityE14AbilitiesIndexb
        .hidden bl_addr__ZN9Abilities10setAbilityE14AbilitiesIndexb


        .global _ZN25ActorDefinitionIdentifierC1E9ActorType 
        .type   _ZN25ActorDefinitionIdentifierC1E9ActorType, %function
_ZN25ActorDefinitionIdentifierC1E9ActorType:
        ldr     ip, .L_ZN25ActorDefinitionIdentifierC1E9ActorType2
.L_ZN25ActorDefinitionIdentifierC1E9ActorTypePIC0:
        add     ip, pc, ip 
        ldr     ip, [ip]
        blx     ip 
.L_ZN25ActorDefinitionIdentifierC1E9ActorType3:
        .align  2
.L_ZN25ActorDefinitionIdentifierC1E9ActorType2:
        .word   bl_addr__ZN25ActorDefinitionIdentifierC1E9ActorType-(.L_ZN25ActorDefinitionIdentifierC1E9ActorTypePIC0+8)
        .size   _ZN25ActorDefinitionIdentifierC1E9ActorType, .-_ZN25ActorDefinitionIdentifierC1E9ActorType
        .hidden bl_addr__ZN25ActorDefinitionIdentifierC1E9ActorType


        .global _ZN12ActorFactoryC1ER5Level 
        .type   _ZN12ActorFactoryC1ER5Level, %function
_ZN12ActorFactoryC1ER5Level:
        ldr     ip, .L_ZN12ActorFactoryC1ER5Level2
.L_ZN12ActorFactoryC1ER5LevelPIC0:
        add     ip, pc, ip 
        ldr     ip, [ip]
        blx     ip 
.L_ZN12ActorFactoryC1ER5Level3:
        .align  2
.L_ZN12ActorFactoryC1ER5Level2:
        .word   bl_addr__ZN12ActorFactoryC1ER5Level-(.L_ZN12ActorFactoryC1ER5LevelPIC0+8)
        .size   _ZN12ActorFactoryC1ER5Level, .-_ZN12ActorFactoryC1ER5Level
        .hidden bl_addr__ZN12ActorFactoryC1ER5Level


        .global _ZN12ActorFactory19createSpawnedEntityERK25ActorDefinitionIdentifierP5ActorRK4Vec3RK4Vec2 
        .type   _ZN12ActorFactory19createSpawnedEntityERK25ActorDefinitionIdentifierP5ActorRK4Vec3RK4Vec2, %function
_ZN12ActorFactory19createSpawnedEntityERK25ActorDefinitionIdentifierP5ActorRK4Vec3RK4Vec2:
        ldr     ip, .L_ZN12ActorFactory19createSpawnedEntityERK25ActorDefinitionIdentifierP5ActorRK4Vec3RK4Vec22
.L_ZN12ActorFactory19createSpawnedEntityERK25ActorDefinitionIdentifierP5ActorRK4Vec3RK4Vec2PIC0:
        add     ip, pc, ip 
        ldr     ip, [ip]
        blx     ip 
.L_ZN12ActorFactory19createSpawnedEntityERK25ActorDefinitionIdentifierP5ActorRK4Vec3RK4Vec23:
        .align  2
.L_ZN12ActorFactory19createSpawnedEntityERK25ActorDefinitionIdentifierP5ActorRK4Vec3RK4Vec22:
        .word   bl_addr__ZN12ActorFactory19createSpawnedEntityERK25ActorDefinitionIdentifierP5ActorRK4Vec3RK4Vec2-(.L_ZN12ActorFactory19createSpawnedEntityERK25ActorDefinitionIdentifierP5ActorRK4Vec3RK4Vec2PIC0+8)
        .size   _ZN12ActorFactory19createSpawnedEntityERK25ActorDefinitionIdentifierP5ActorRK4Vec3RK4Vec2, .-_ZN12ActorFactory19createSpawnedEntityERK25ActorDefinitionIdentifierP5ActorRK4Vec3RK4Vec2
        .hidden bl_addr__ZN12ActorFactory19createSpawnedEntityERK25ActorDefinitionIdentifierP5ActorRK4Vec3RK4Vec2


        .global _ZN5Level9addEntityER11BlockSourceSt10unique_ptrI5ActorSt14default_deleteIS3_EE 
        .type   _ZN5Level9addEntityER11BlockSourceSt10unique_ptrI5ActorSt14default_deleteIS3_EE, %function
_ZN5Level9addEntityER11BlockSourceSt10unique_ptrI5ActorSt14default_deleteIS3_EE:
        ldr     ip, .L_ZN5Level9addEntityER11BlockSourceSt10unique_ptrI5ActorSt14default_deleteIS3_EE2
.L_ZN5Level9addEntityER11BlockSourceSt10unique_ptrI5ActorSt14default_deleteIS3_EEPIC0:
        add     ip, pc, ip 
        ldr     ip, [ip]
        blx     ip 
.L_ZN5Level9addEntityER11BlockSourceSt10unique_ptrI5ActorSt14default_deleteIS3_EE3:
        .align  2
.L_ZN5Level9addEntityER11BlockSourceSt10unique_ptrI5ActorSt14default_deleteIS3_EE2:
        .word   bl_addr__ZN5Level9addEntityER11BlockSourceSt10unique_ptrI5ActorSt14default_deleteIS3_EE-(.L_ZN5Level9addEntityER11BlockSourceSt10unique_ptrI5ActorSt14default_deleteIS3_EEPIC0+8)
        .size   _ZN5Level9addEntityER11BlockSourceSt10unique_ptrI5ActorSt14default_deleteIS3_EE, .-_ZN5Level9addEntityER11BlockSourceSt10unique_ptrI5ActorSt14default_deleteIS3_EE
        .hidden bl_addr__ZN5Level9addEntityER11BlockSourceSt10unique_ptrI5ActorSt14default_deleteIS3_EE


        .global _ZN5Level15addGlobalEntityER11BlockSourceSt10unique_ptrI5ActorSt14default_deleteIS3_EE 
        .type   _ZN5Level15addGlobalEntityER11BlockSourceSt10unique_ptrI5ActorSt14default_deleteIS3_EE, %function
_ZN5Level15addGlobalEntityER11BlockSourceSt10unique_ptrI5ActorSt14default_deleteIS3_EE:
        ldr     ip, .L_ZN5Level15addGlobalEntityER11BlockSourceSt10unique_ptrI5ActorSt14default_deleteIS3_EE2
.L_ZN5Level15addGlobalEntityER11BlockSourceSt10unique_ptrI5ActorSt14default_deleteIS3_EEPIC0:
        add     ip, pc, ip 
        ldr     ip, [ip]
        blx     ip 
.L_ZN5Level15addGlobalEntityER11BlockSourceSt10unique_ptrI5ActorSt14default_deleteIS3_EE3:
        .align  2
.L_ZN5Level15addGlobalEntityER11BlockSourceSt10unique_ptrI5ActorSt14default_deleteIS3_EE2:
        .word   bl_addr__ZN5Level15addGlobalEntityER11BlockSourceSt10unique_ptrI5ActorSt14default_deleteIS3_EE-(.L_ZN5Level15addGlobalEntityER11BlockSourceSt10unique_ptrI5ActorSt14default_deleteIS3_EEPIC0+8)
        .size   _ZN5Level15addGlobalEntityER11BlockSourceSt10unique_ptrI5ActorSt14default_deleteIS3_EE, .-_ZN5Level15addGlobalEntityER11BlockSourceSt10unique_ptrI5ActorSt14default_deleteIS3_EE
        .hidden bl_addr__ZN5Level15addGlobalEntityER11BlockSourceSt10unique_ptrI5ActorSt14default_deleteIS3_EE


        .global _ZN17MobEffectInstanceC1Ejiibbb 
        .type   _ZN17MobEffectInstanceC1Ejiibbb, %function
_ZN17MobEffectInstanceC1Ejiibbb:
        ldr     ip, .L_ZN17MobEffectInstanceC1Ejiibbb2
.L_ZN17MobEffectInstanceC1EjiibbbPIC0:
        add     ip, pc, ip 
        ldr     ip, [ip]
        blx     ip 
.L_ZN17MobEffectInstanceC1Ejiibbb3:
        .align  2
.L_ZN17MobEffectInstanceC1Ejiibbb2:
        .word   bl_addr__ZN17MobEffectInstanceC1Ejiibbb-(.L_ZN17MobEffectInstanceC1EjiibbbPIC0+8)
        .size   _ZN17MobEffectInstanceC1Ejiibbb, .-_ZN17MobEffectInstanceC1Ejiibbb
        .hidden bl_addr__ZN17MobEffectInstanceC1Ejiibbb


        .global _ZN5Actor9addEffectERK17MobEffectInstance 
        .type   _ZN5Actor9addEffectERK17MobEffectInstance, %function
_ZN5Actor9addEffectERK17MobEffectInstance:
        ldr     ip, .L_ZN5Actor9addEffectERK17MobEffectInstance2
.L_ZN5Actor9addEffectERK17MobEffectInstancePIC0:
        add     ip, pc, ip 
        ldr     ip, [ip]
        blx     ip 
.L_ZN5Actor9addEffectERK17MobEffectInstance3:
        .align  2
.L_ZN5Actor9addEffectERK17MobEffectInstance2:
        .word   bl_addr__ZN5Actor9addEffectERK17MobEffectInstance-(.L_ZN5Actor9addEffectERK17MobEffectInstancePIC0+8)
        .size   _ZN5Actor9addEffectERK17MobEffectInstance, .-_ZN5Actor9addEffectERK17MobEffectInstance
        .hidden bl_addr__ZN5Actor9addEffectERK17MobEffectInstance


        .global _ZN5Actor12removeEffectEi 
        .type   _ZN5Actor12removeEffectEi, %function
_ZN5Actor12removeEffectEi:
        ldr     ip, .L_ZN5Actor12removeEffectEi2
.L_ZN5Actor12removeEffectEiPIC0:
        add     ip, pc, ip 
        ldr     ip, [ip]
        blx     ip 
.L_ZN5Actor12removeEffectEi3:
        .align  2
.L_ZN5Actor12removeEffectEi2:
        .word   bl_addr__ZN5Actor12removeEffectEi-(.L_ZN5Actor12removeEffectEiPIC0+8)
        .size   _ZN5Actor12removeEffectEi, .-_ZN5Actor12removeEffectEi
        .hidden bl_addr__ZN5Actor12removeEffectEi


        .global _ZN5Actor16removeAllEffectsEv 
        .type   _ZN5Actor16removeAllEffectsEv, %function
_ZN5Actor16removeAllEffectsEv:
        ldr     ip, .L_ZN5Actor16removeAllEffectsEv2
.L_ZN5Actor16removeAllEffectsEvPIC0:
        add     ip, pc, ip 
        ldr     ip, [ip]
        blx     ip 
.L_ZN5Actor16removeAllEffectsEv3:
        .align  2
.L_ZN5Actor16removeAllEffectsEv2:
        .word   bl_addr__ZN5Actor16removeAllEffectsEv-(.L_ZN5Actor16removeAllEffectsEvPIC0+8)
        .size   _ZN5Actor16removeAllEffectsEv, .-_ZN5Actor16removeAllEffectsEv
        .hidden bl_addr__ZN5Actor16removeAllEffectsEv


        .global _ZNK5Actor9getHealthEv 
        .type   _ZNK5Actor9getHealthEv, %function
_ZNK5Actor9getHealthEv:
        ldr     ip, .L_ZNK5Actor9getHealthEv2
.L_ZNK5Actor9getHealthEvPIC0:
        add     ip, pc, ip 
        ldr     ip, [ip]
        blx     ip 
.L_ZNK5Actor9getHealthEv3:
        .align  2
.L_ZNK5Actor9getHealthEv2:
        .word   bl_addr__ZNK5Actor9getHealthEv-(.L_ZNK5Actor9getHealthEvPIC0+8)
        .size   _ZNK5Actor9getHealthEv, .-_ZNK5Actor9getHealthEv
        .hidden bl_addr__ZNK5Actor9getHealthEv


        .global _ZNK5Actor12getAttributeERK9Attribute 
        .type   _ZNK5Actor12getAttributeERK9Attribute, %function
_ZNK5Actor12getAttributeERK9Attribute:
        ldr     ip, .L_ZNK5Actor12getAttributeERK9Attribute2
.L_ZNK5Actor12getAttributeERK9AttributePIC0:
        add     ip, pc, ip 
        ldr     ip, [ip]
        blx     ip 
.L_ZNK5Actor12getAttributeERK9Attribute3:
        .align  2
.L_ZNK5Actor12getAttributeERK9Attribute2:
        .word   bl_addr__ZNK5Actor12getAttributeERK9Attribute-(.L_ZNK5Actor12getAttributeERK9AttributePIC0+8)
        .size   _ZNK5Actor12getAttributeERK9Attribute, .-_ZNK5Actor12getAttributeERK9Attribute
        .hidden bl_addr__ZNK5Actor12getAttributeERK9Attribute


        .global _ZN16SharedAttributes6HEALTHE 
        .type   _ZN16SharedAttributes6HEALTHE, %function
_ZN16SharedAttributes6HEALTHE:
        ldr     ip, .L_ZN16SharedAttributes6HEALTHE2
.L_ZN16SharedAttributes6HEALTHEPIC0:
        add     ip, pc, ip 
        ldr     ip, [ip]
        blx     ip 
.L_ZN16SharedAttributes6HEALTHE3:
        .align  2
.L_ZN16SharedAttributes6HEALTHE2:
        .word   bl_addr__ZN16SharedAttributes6HEALTHE-(.L_ZN16SharedAttributes6HEALTHEPIC0+8)
        .size   _ZN16SharedAttributes6HEALTHE, .-_ZN16SharedAttributes6HEALTHE
        .hidden bl_addr__ZN16SharedAttributes6HEALTHE


        .global _ZN17AttributeInstance11setMaxValueEf 
        .type   _ZN17AttributeInstance11setMaxValueEf, %function
_ZN17AttributeInstance11setMaxValueEf:
        ldr     ip, .L_ZN17AttributeInstance11setMaxValueEf2
.L_ZN17AttributeInstance11setMaxValueEfPIC0:
        add     ip, pc, ip 
        ldr     ip, [ip]
        blx     ip 
.L_ZN17AttributeInstance11setMaxValueEf3:
        .align  2
.L_ZN17AttributeInstance11setMaxValueEf2:
        .word   bl_addr__ZN17AttributeInstance11setMaxValueEf-(.L_ZN17AttributeInstance11setMaxValueEfPIC0+8)
        .size   _ZN17AttributeInstance11setMaxValueEf, .-_ZN17AttributeInstance11setMaxValueEf
        .hidden bl_addr__ZN17AttributeInstance11setMaxValueEf


        .global _ZNK17AttributeInstance11getMaxValueEv 
        .type   _ZNK17AttributeInstance11getMaxValueEv, %function
_ZNK17AttributeInstance11getMaxValueEv:
        ldr     ip, .L_ZNK17AttributeInstance11getMaxValueEv2
.L_ZNK17AttributeInstance11getMaxValueEvPIC0:
        add     ip, pc, ip 
        ldr     ip, [ip]
        blx     ip 
.L_ZNK17AttributeInstance11getMaxValueEv3:
        .align  2
.L_ZNK17AttributeInstance11getMaxValueEv2:
        .word   bl_addr__ZNK17AttributeInstance11getMaxValueEv-(.L_ZNK17AttributeInstance11getMaxValueEvPIC0+8)
        .size   _ZNK17AttributeInstance11getMaxValueEv, .-_ZNK17AttributeInstance11getMaxValueEv
        .hidden bl_addr__ZNK17AttributeInstance11getMaxValueEv


        .global _ZN9Minecraft11getCommandsEv 
        .type   _ZN9Minecraft11getCommandsEv, %function
_ZN9Minecraft11getCommandsEv:
        ldr     ip, .L_ZN9Minecraft11getCommandsEv2
.L_ZN9Minecraft11getCommandsEvPIC0:
        add     ip, pc, ip 
        ldr     ip, [ip]
        blx     ip 
.L_ZN9Minecraft11getCommandsEv3:
        .align  2
.L_ZN9Minecraft11getCommandsEv2:
        .word   bl_addr__ZN9Minecraft11getCommandsEv-(.L_ZN9Minecraft11getCommandsEvPIC0+8)
        .size   _ZN9Minecraft11getCommandsEv, .-_ZN9Minecraft11getCommandsEv
        .hidden bl_addr__ZN9Minecraft11getCommandsEv


        .global _ZN17MinecraftCommands11getRegistryEv 
        .type   _ZN17MinecraftCommands11getRegistryEv, %function
_ZN17MinecraftCommands11getRegistryEv:
        ldr     ip, .L_ZN17MinecraftCommands11getRegistryEv2
.L_ZN17MinecraftCommands11getRegistryEvPIC0:
        add     ip, pc, ip 
        ldr     ip, [ip]
        blx     ip 
.L_ZN17MinecraftCommands11getRegistryEv3:
        .align  2
.L_ZN17MinecraftCommands11getRegistryEv2:
        .word   bl_addr__ZN17MinecraftCommands11getRegistryEv-(.L_ZN17MinecraftCommands11getRegistryEvPIC0+8)
        .size   _ZN17MinecraftCommands11getRegistryEv, .-_ZN17MinecraftCommands11getRegistryEv
        .hidden bl_addr__ZN17MinecraftCommands11getRegistryEv


        .global _ZNK15CommandRegistry11findCommandERKSs 
        .type   _ZNK15CommandRegistry11findCommandERKSs, %function
_ZNK15CommandRegistry11findCommandERKSs:
        ldr     ip, .L_ZNK15CommandRegistry11findCommandERKSs2
.L_ZNK15CommandRegistry11findCommandERKSsPIC0:
        add     ip, pc, ip 
        ldr     ip, [ip]
        blx     ip 
.L_ZNK15CommandRegistry11findCommandERKSs3:
        .align  2
.L_ZNK15CommandRegistry11findCommandERKSs2:
        .word   bl_addr__ZNK15CommandRegistry11findCommandERKSs-(.L_ZNK15CommandRegistry11findCommandERKSsPIC0+8)
        .size   _ZNK15CommandRegistry11findCommandERKSs, .-_ZNK15CommandRegistry11findCommandERKSs
        .hidden bl_addr__ZNK15CommandRegistry11findCommandERKSs


        .global _ZN11BlockLegacy11setFrictionEf 
        .type   _ZN11BlockLegacy11setFrictionEf, %function
_ZN11BlockLegacy11setFrictionEf:
        ldr     ip, .L_ZN11BlockLegacy11setFrictionEf2
.L_ZN11BlockLegacy11setFrictionEfPIC0:
        add     ip, pc, ip 
        ldr     ip, [ip]
        blx     ip 
.L_ZN11BlockLegacy11setFrictionEf3:
        .align  2
.L_ZN11BlockLegacy11setFrictionEf2:
        .word   bl_addr__ZN11BlockLegacy11setFrictionEf-(.L_ZN11BlockLegacy11setFrictionEfPIC0+8)
        .size   _ZN11BlockLegacy11setFrictionEf, .-_ZN11BlockLegacy11setFrictionEf
        .hidden bl_addr__ZN11BlockLegacy11setFrictionEf


        .global _ZNK11BlockSource9canSeeSkyEiii 
        .type   _ZNK11BlockSource9canSeeSkyEiii, %function
_ZNK11BlockSource9canSeeSkyEiii:
        ldr     ip, .L_ZNK11BlockSource9canSeeSkyEiii2
.L_ZNK11BlockSource9canSeeSkyEiiiPIC0:
        add     ip, pc, ip 
        ldr     ip, [ip]
        blx     ip 
.L_ZNK11BlockSource9canSeeSkyEiii3:
        .align  2
.L_ZNK11BlockSource9canSeeSkyEiii2:
        .word   bl_addr__ZNK11BlockSource9canSeeSkyEiii-(.L_ZNK11BlockSource9canSeeSkyEiiiPIC0+8)
        .size   _ZNK11BlockSource9canSeeSkyEiii, .-_ZNK11BlockSource9canSeeSkyEiii
        .hidden bl_addr__ZNK11BlockSource9canSeeSkyEiii


        .global _ZN4I18n18getCurrentLanguageEv 
        .type   _ZN4I18n18getCurrentLanguageEv, %function
_ZN4I18n18getCurrentLanguageEv:
        ldr     ip, .L_ZN4I18n18getCurrentLanguageEv2
.L_ZN4I18n18getCurrentLanguageEvPIC0:
        add     ip, pc, ip 
        ldr     ip, [ip]
        blx     ip 
.L_ZN4I18n18getCurrentLanguageEv3:
        .align  2
.L_ZN4I18n18getCurrentLanguageEv2:
        .word   bl_addr__ZN4I18n18getCurrentLanguageEv-(.L_ZN4I18n18getCurrentLanguageEvPIC0+8)
        .size   _ZN4I18n18getCurrentLanguageEv, .-_ZN4I18n18getCurrentLanguageEv
        .hidden bl_addr__ZN4I18n18getCurrentLanguageEv


        .global _ZN4Item15setUseAnimationE12UseAnimation 
        .type   _ZN4Item15setUseAnimationE12UseAnimation, %function
_ZN4Item15setUseAnimationE12UseAnimation:
        ldr     ip, .L_ZN4Item15setUseAnimationE12UseAnimation2
.L_ZN4Item15setUseAnimationE12UseAnimationPIC0:
        add     ip, pc, ip 
        ldr     ip, [ip]
        blx     ip 
.L_ZN4Item15setUseAnimationE12UseAnimation3:
        .align  2
.L_ZN4Item15setUseAnimationE12UseAnimation2:
        .word   bl_addr__ZN4Item15setUseAnimationE12UseAnimation-(.L_ZN4Item15setUseAnimationE12UseAnimationPIC0+8)
        .size   _ZN4Item15setUseAnimationE12UseAnimation, .-_ZN4Item15setUseAnimationE12UseAnimation
        .hidden bl_addr__ZN4Item15setUseAnimationE12UseAnimation


        .global _ZNK12ItemInstance23getEnchantsFromUserDataEv 
        .type   _ZNK12ItemInstance23getEnchantsFromUserDataEv, %function
_ZNK12ItemInstance23getEnchantsFromUserDataEv:
        ldr     ip, .L_ZNK12ItemInstance23getEnchantsFromUserDataEv2
.L_ZNK12ItemInstance23getEnchantsFromUserDataEvPIC0:
        add     ip, pc, ip 
        ldr     ip, [ip]
        blx     ip 
.L_ZNK12ItemInstance23getEnchantsFromUserDataEv3:
        .align  2
.L_ZNK12ItemInstance23getEnchantsFromUserDataEv2:
        .word   bl_addr__ZNK12ItemInstance23getEnchantsFromUserDataEv-(.L_ZNK12ItemInstance23getEnchantsFromUserDataEvPIC0+8)
        .size   _ZNK12ItemInstance23getEnchantsFromUserDataEv, .-_ZNK12ItemInstance23getEnchantsFromUserDataEv
        .hidden bl_addr__ZNK12ItemInstance23getEnchantsFromUserDataEv


        .global _ZNK12ItemEnchants14getAllEnchantsEv 
        .type   _ZNK12ItemEnchants14getAllEnchantsEv, %function
_ZNK12ItemEnchants14getAllEnchantsEv:
        ldr     ip, .L_ZNK12ItemEnchants14getAllEnchantsEv2
.L_ZNK12ItemEnchants14getAllEnchantsEvPIC0:
        add     ip, pc, ip 
        ldr     ip, [ip]
        blx     ip 
.L_ZNK12ItemEnchants14getAllEnchantsEv3:
        .align  2
.L_ZNK12ItemEnchants14getAllEnchantsEv2:
        .word   bl_addr__ZNK12ItemEnchants14getAllEnchantsEv-(.L_ZNK12ItemEnchants14getAllEnchantsEvPIC0+8)
        .size   _ZNK12ItemEnchants14getAllEnchantsEv, .-_ZNK12ItemEnchants14getAllEnchantsEv
        .hidden bl_addr__ZNK12ItemEnchants14getAllEnchantsEv


        .global _ZN4Item15setAllowOffhandEb 
        .type   _ZN4Item15setAllowOffhandEb, %function
_ZN4Item15setAllowOffhandEb:
        ldr     ip, .L_ZN4Item15setAllowOffhandEb2
.L_ZN4Item15setAllowOffhandEbPIC0:
        add     ip, pc, ip 
        ldr     ip, [ip]
        blx     ip 
.L_ZN4Item15setAllowOffhandEb3:
        .align  2
.L_ZN4Item15setAllowOffhandEb2:
        .word   bl_addr__ZN4Item15setAllowOffhandEb-(.L_ZN4Item15setAllowOffhandEbPIC0+8)
        .size   _ZN4Item15setAllowOffhandEb, .-_ZN4Item15setAllowOffhandEb
        .hidden bl_addr__ZN4Item15setAllowOffhandEb


        .global _ZN5Actor13setStatusFlagE10ActorFlagsb 
        .type   _ZN5Actor13setStatusFlagE10ActorFlagsb, %function
_ZN5Actor13setStatusFlagE10ActorFlagsb:
        ldr     ip, .L_ZN5Actor13setStatusFlagE10ActorFlagsb2
.L_ZN5Actor13setStatusFlagE10ActorFlagsbPIC0:
        add     ip, pc, ip 
        ldr     ip, [ip]
        blx     ip 
.L_ZN5Actor13setStatusFlagE10ActorFlagsb3:
        .align  2
.L_ZN5Actor13setStatusFlagE10ActorFlagsb2:
        .word   bl_addr__ZN5Actor13setStatusFlagE10ActorFlagsb-(.L_ZN5Actor13setStatusFlagE10ActorFlagsbPIC0+8)
        .size   _ZN5Actor13setStatusFlagE10ActorFlagsb, .-_ZN5Actor13setStatusFlagE10ActorFlagsb
        .hidden bl_addr__ZN5Actor13setStatusFlagE10ActorFlagsb


        .global _ZN10ScreenView17setDebugRenderingEb 
        .type   _ZN10ScreenView17setDebugRenderingEb, %function
_ZN10ScreenView17setDebugRenderingEb:
        ldr     ip, .L_ZN10ScreenView17setDebugRenderingEb2
.L_ZN10ScreenView17setDebugRenderingEbPIC0:
        add     ip, pc, ip 
        ldr     ip, [ip]
        blx     ip 
.L_ZN10ScreenView17setDebugRenderingEb3:
        .align  2
.L_ZN10ScreenView17setDebugRenderingEb2:
        .word   bl_addr__ZN10ScreenView17setDebugRenderingEb-(.L_ZN10ScreenView17setDebugRenderingEbPIC0+8)
        .size   _ZN10ScreenView17setDebugRenderingEb, .-_ZN10ScreenView17setDebugRenderingEb
        .hidden bl_addr__ZN10ScreenView17setDebugRenderingEb


        .global _ZN5Actor11getTargetIdEv 
        .type   _ZN5Actor11getTargetIdEv, %function
_ZN5Actor11getTargetIdEv:
        ldr     ip, .L_ZN5Actor11getTargetIdEv2
.L_ZN5Actor11getTargetIdEvPIC0:
        add     ip, pc, ip 
        ldr     ip, [ip]
        blx     ip 
.L_ZN5Actor11getTargetIdEv3:
        .align  2
.L_ZN5Actor11getTargetIdEv2:
        .word   bl_addr__ZN5Actor11getTargetIdEv-(.L_ZN5Actor11getTargetIdEvPIC0+8)
        .size   _ZN5Actor11getTargetIdEv, .-_ZN5Actor11getTargetIdEv
        .hidden bl_addr__ZN5Actor11getTargetIdEv


        .global _ZN5Actor9setTargetEPS_ 
        .type   _ZN5Actor9setTargetEPS_, %function
_ZN5Actor9setTargetEPS_:
        ldr     ip, .L_ZN5Actor9setTargetEPS_2
.L_ZN5Actor9setTargetEPS_PIC0:
        add     ip, pc, ip 
        ldr     ip, [ip]
        blx     ip 
.L_ZN5Actor9setTargetEPS_3:
        .align  2
.L_ZN5Actor9setTargetEPS_2:
        .word   bl_addr__ZN5Actor9setTargetEPS_-(.L_ZN5Actor9setTargetEPS_PIC0+8)
        .size   _ZN5Actor9setTargetEPS_, .-_ZN5Actor9setTargetEPS_
        .hidden bl_addr__ZN5Actor9setTargetEPS_


        .global _ZN19ServerCommandOriginC1ERKSsR11ServerLevel22CommandPermissionLevel 
        .type   _ZN19ServerCommandOriginC1ERKSsR11ServerLevel22CommandPermissionLevel, %function
_ZN19ServerCommandOriginC1ERKSsR11ServerLevel22CommandPermissionLevel:
        ldr     ip, .L_ZN19ServerCommandOriginC1ERKSsR11ServerLevel22CommandPermissionLevel2
.L_ZN19ServerCommandOriginC1ERKSsR11ServerLevel22CommandPermissionLevelPIC0:
        add     ip, pc, ip 
        ldr     ip, [ip]
        blx     ip 
.L_ZN19ServerCommandOriginC1ERKSsR11ServerLevel22CommandPermissionLevel3:
        .align  2
.L_ZN19ServerCommandOriginC1ERKSsR11ServerLevel22CommandPermissionLevel2:
        .word   bl_addr__ZN19ServerCommandOriginC1ERKSsR11ServerLevel22CommandPermissionLevel-(.L_ZN19ServerCommandOriginC1ERKSsR11ServerLevel22CommandPermissionLevelPIC0+8)
        .size   _ZN19ServerCommandOriginC1ERKSsR11ServerLevel22CommandPermissionLevel, .-_ZN19ServerCommandOriginC1ERKSsR11ServerLevel22CommandPermissionLevel
        .hidden bl_addr__ZN19ServerCommandOriginC1ERKSsR11ServerLevel22CommandPermissionLevel


        .global _ZNK17MinecraftCommands23requestCommandExecutionESt10unique_ptrI13CommandOriginSt14default_deleteIS1_EERKSsib 
        .type   _ZNK17MinecraftCommands23requestCommandExecutionESt10unique_ptrI13CommandOriginSt14default_deleteIS1_EERKSsib, %function
_ZNK17MinecraftCommands23requestCommandExecutionESt10unique_ptrI13CommandOriginSt14default_deleteIS1_EERKSsib:
        ldr     ip, .L_ZNK17MinecraftCommands23requestCommandExecutionESt10unique_ptrI13CommandOriginSt14default_deleteIS1_EERKSsib2
.L_ZNK17MinecraftCommands23requestCommandExecutionESt10unique_ptrI13CommandOriginSt14default_deleteIS1_EERKSsibPIC0:
        add     ip, pc, ip 
        ldr     ip, [ip]
        blx     ip 
.L_ZNK17MinecraftCommands23requestCommandExecutionESt10unique_ptrI13CommandOriginSt14default_deleteIS1_EERKSsib3:
        .align  2
.L_ZNK17MinecraftCommands23requestCommandExecutionESt10unique_ptrI13CommandOriginSt14default_deleteIS1_EERKSsib2:
        .word   bl_addr__ZNK17MinecraftCommands23requestCommandExecutionESt10unique_ptrI13CommandOriginSt14default_deleteIS1_EERKSsib-(.L_ZNK17MinecraftCommands23requestCommandExecutionESt10unique_ptrI13CommandOriginSt14default_deleteIS1_EERKSsibPIC0+8)
        .size   _ZNK17MinecraftCommands23requestCommandExecutionESt10unique_ptrI13CommandOriginSt14default_deleteIS1_EERKSsib, .-_ZNK17MinecraftCommands23requestCommandExecutionESt10unique_ptrI13CommandOriginSt14default_deleteIS1_EERKSsib
        .hidden bl_addr__ZNK17MinecraftCommands23requestCommandExecutionESt10unique_ptrI13CommandOriginSt14default_deleteIS1_EERKSsib


        .global _ZN11ServerLevel11getCommandsEv 
        .type   _ZN11ServerLevel11getCommandsEv, %function
_ZN11ServerLevel11getCommandsEv:
        ldr     ip, .L_ZN11ServerLevel11getCommandsEv2
.L_ZN11ServerLevel11getCommandsEvPIC0:
        add     ip, pc, ip 
        ldr     ip, [ip]
        blx     ip 
.L_ZN11ServerLevel11getCommandsEv3:
        .align  2
.L_ZN11ServerLevel11getCommandsEv2:
        .word   bl_addr__ZN11ServerLevel11getCommandsEv-(.L_ZN11ServerLevel11getCommandsEvPIC0+8)
        .size   _ZN11ServerLevel11getCommandsEv, .-_ZN11ServerLevel11getCommandsEv
        .hidden bl_addr__ZN11ServerLevel11getCommandsEv


        .global _ZN14CommandVersion14CurrentVersionE 
        .type   _ZN14CommandVersion14CurrentVersionE, %function
_ZN14CommandVersion14CurrentVersionE:
        ldr     ip, .L_ZN14CommandVersion14CurrentVersionE2
.L_ZN14CommandVersion14CurrentVersionEPIC0:
        add     ip, pc, ip 
        ldr     ip, [ip]
        blx     ip 
.L_ZN14CommandVersion14CurrentVersionE3:
        .align  2
.L_ZN14CommandVersion14CurrentVersionE2:
        .word   bl_addr__ZN14CommandVersion14CurrentVersionE-(.L_ZN14CommandVersion14CurrentVersionEPIC0+8)
        .size   _ZN14CommandVersion14CurrentVersionE, .-_ZN14CommandVersion14CurrentVersionE
        .hidden bl_addr__ZN14CommandVersion14CurrentVersionE


        .global _ZNK5Actor14getOffhandSlotEv 
        .type   _ZNK5Actor14getOffhandSlotEv, %function
_ZNK5Actor14getOffhandSlotEv:
        ldr     ip, .L_ZNK5Actor14getOffhandSlotEv2
.L_ZNK5Actor14getOffhandSlotEvPIC0:
        add     ip, pc, ip 
        ldr     ip, [ip]
        blx     ip 
.L_ZNK5Actor14getOffhandSlotEv3:
        .align  2
.L_ZNK5Actor14getOffhandSlotEv2:
        .word   bl_addr__ZNK5Actor14getOffhandSlotEv-(.L_ZNK5Actor14getOffhandSlotEvPIC0+8)
        .size   _ZNK5Actor14getOffhandSlotEv, .-_ZNK5Actor14getOffhandSlotEv
        .hidden bl_addr__ZNK5Actor14getOffhandSlotEv


        .global _ZN6Player13addExperienceEi 
        .type   _ZN6Player13addExperienceEi, %function
_ZN6Player13addExperienceEi:
        ldr     ip, .L_ZN6Player13addExperienceEi2
.L_ZN6Player13addExperienceEiPIC0:
        add     ip, pc, ip 
        ldr     ip, [ip]
        blx     ip 
.L_ZN6Player13addExperienceEi3:
        .align  2
.L_ZN6Player13addExperienceEi2:
        .word   bl_addr__ZN6Player13addExperienceEi-(.L_ZN6Player13addExperienceEiPIC0+8)
        .size   _ZN6Player13addExperienceEi, .-_ZN6Player13addExperienceEi
        .hidden bl_addr__ZN6Player13addExperienceEi


        .global _ZN6Player9addLevelsEi 
        .type   _ZN6Player9addLevelsEi, %function
_ZN6Player9addLevelsEi:
        ldr     ip, .L_ZN6Player9addLevelsEi2
.L_ZN6Player9addLevelsEiPIC0:
        add     ip, pc, ip 
        ldr     ip, [ip]
        blx     ip 
.L_ZN6Player9addLevelsEi3:
        .align  2
.L_ZN6Player9addLevelsEi2:
        .word   bl_addr__ZN6Player9addLevelsEi-(.L_ZN6Player9addLevelsEiPIC0+8)
        .size   _ZN6Player9addLevelsEi, .-_ZN6Player9addLevelsEi
        .hidden bl_addr__ZN6Player9addLevelsEi


        .global _ZN6Recipe13isAnyAuxValueERK14ItemDescriptor 
        .type   _ZN6Recipe13isAnyAuxValueERK14ItemDescriptor, %function
_ZN6Recipe13isAnyAuxValueERK14ItemDescriptor:
        ldr     ip, .L_ZN6Recipe13isAnyAuxValueERK14ItemDescriptor2
.L_ZN6Recipe13isAnyAuxValueERK14ItemDescriptorPIC0:
        add     ip, pc, ip 
        ldr     ip, [ip]
        blx     ip 
.L_ZN6Recipe13isAnyAuxValueERK14ItemDescriptor3:
        .align  2
.L_ZN6Recipe13isAnyAuxValueERK14ItemDescriptor2:
        .word   bl_addr__ZN6Recipe13isAnyAuxValueERK14ItemDescriptor-(.L_ZN6Recipe13isAnyAuxValueERK14ItemDescriptorPIC0+8)
        .size   _ZN6Recipe13isAnyAuxValueERK14ItemDescriptor, .-_ZN6Recipe13isAnyAuxValueERK14ItemDescriptor
        .hidden bl_addr__ZN6Recipe13isAnyAuxValueERK14ItemDescriptor


        .global _ZN5Actor4hurtERK17ActorDamageSourceibb 
        .type   _ZN5Actor4hurtERK17ActorDamageSourceibb, %function
_ZN5Actor4hurtERK17ActorDamageSourceibb:
        ldr     ip, .L_ZN5Actor4hurtERK17ActorDamageSourceibb2
.L_ZN5Actor4hurtERK17ActorDamageSourceibbPIC0:
        add     ip, pc, ip 
        ldr     ip, [ip]
        blx     ip 
.L_ZN5Actor4hurtERK17ActorDamageSourceibb3:
        .align  2
.L_ZN5Actor4hurtERK17ActorDamageSourceibb2:
        .word   bl_addr__ZN5Actor4hurtERK17ActorDamageSourceibb-(.L_ZN5Actor4hurtERK17ActorDamageSourceibbPIC0+8)
        .size   _ZN5Actor4hurtERK17ActorDamageSourceibb, .-_ZN5Actor4hurtERK17ActorDamageSourceibb
        .hidden bl_addr__ZN5Actor4hurtERK17ActorDamageSourceibb


        .global _ZN10SceneStack6updateEv 
        .type   _ZN10SceneStack6updateEv, %function
_ZN10SceneStack6updateEv:
        ldr     ip, .L_ZN10SceneStack6updateEv2
.L_ZN10SceneStack6updateEvPIC0:
        add     ip, pc, ip 
        ldr     ip, [ip]
        blx     ip 
.L_ZN10SceneStack6updateEv3:
        .align  2
.L_ZN10SceneStack6updateEv2:
        .word   bl_addr__ZN10SceneStack6updateEv-(.L_ZN10SceneStack6updateEvPIC0+8)
        .size   _ZN10SceneStack6updateEv, .-_ZN10SceneStack6updateEv
        .hidden bl_addr__ZN10SceneStack6updateEv


        .global _ZNK10SceneStack13getScreenNameEv 
        .type   _ZNK10SceneStack13getScreenNameEv, %function
_ZNK10SceneStack13getScreenNameEv:
        ldr     ip, .L_ZNK10SceneStack13getScreenNameEv2
.L_ZNK10SceneStack13getScreenNameEvPIC0:
        add     ip, pc, ip 
        ldr     ip, [ip]
        blx     ip 
.L_ZNK10SceneStack13getScreenNameEv3:
        .align  2
.L_ZNK10SceneStack13getScreenNameEv2:
        .word   bl_addr__ZNK10SceneStack13getScreenNameEv-(.L_ZNK10SceneStack13getScreenNameEvPIC0+8)
        .size   _ZNK10SceneStack13getScreenNameEv, .-_ZNK10SceneStack13getScreenNameEv
        .hidden bl_addr__ZNK10SceneStack13getScreenNameEv


        .global _ZN14ClientInstance15getItemRendererEv 
        .type   _ZN14ClientInstance15getItemRendererEv, %function
_ZN14ClientInstance15getItemRendererEv:
        ldr     ip, .L_ZN14ClientInstance15getItemRendererEv2
.L_ZN14ClientInstance15getItemRendererEvPIC0:
        add     ip, pc, ip 
        ldr     ip, [ip]
        blx     ip 
.L_ZN14ClientInstance15getItemRendererEv3:
        .align  2
.L_ZN14ClientInstance15getItemRendererEv2:
        .word   bl_addr__ZN14ClientInstance15getItemRendererEv-(.L_ZN14ClientInstance15getItemRendererEvPIC0+8)
        .size   _ZN14ClientInstance15getItemRendererEv, .-_ZN14ClientInstance15getItemRendererEv
        .hidden bl_addr__ZN14ClientInstance15getItemRendererEv


        .global _ZNK12ItemInstance15getUseAnimationEv 
        .type   _ZNK12ItemInstance15getUseAnimationEv, %function
_ZNK12ItemInstance15getUseAnimationEv:
        ldr     ip, .L_ZNK12ItemInstance15getUseAnimationEv2
.L_ZNK12ItemInstance15getUseAnimationEvPIC0:
        add     ip, pc, ip 
        ldr     ip, [ip]
        blx     ip 
.L_ZNK12ItemInstance15getUseAnimationEv3:
        .align  2
.L_ZNK12ItemInstance15getUseAnimationEv2:
        .word   bl_addr__ZNK12ItemInstance15getUseAnimationEv-(.L_ZNK12ItemInstance15getUseAnimationEvPIC0+8)
        .size   _ZNK12ItemInstance15getUseAnimationEv, .-_ZNK12ItemInstance15getUseAnimationEv
        .hidden bl_addr__ZNK12ItemInstance15getUseAnimationEv


        .global _ZNK12ItemInstance15getMaxStackSizeEv 
        .type   _ZNK12ItemInstance15getMaxStackSizeEv, %function
_ZNK12ItemInstance15getMaxStackSizeEv:
        ldr     ip, .L_ZNK12ItemInstance15getMaxStackSizeEv2
.L_ZNK12ItemInstance15getMaxStackSizeEvPIC0:
        add     ip, pc, ip 
        ldr     ip, [ip]
        blx     ip 
.L_ZNK12ItemInstance15getMaxStackSizeEv3:
        .align  2
.L_ZNK12ItemInstance15getMaxStackSizeEv2:
        .word   bl_addr__ZNK12ItemInstance15getMaxStackSizeEv-(.L_ZNK12ItemInstance15getMaxStackSizeEvPIC0+8)
        .size   _ZNK12ItemInstance15getMaxStackSizeEv, .-_ZNK12ItemInstance15getMaxStackSizeEv
        .hidden bl_addr__ZNK12ItemInstance15getMaxStackSizeEv


        .global _ZNK5Level10getSpawnerEv 
        .type   _ZNK5Level10getSpawnerEv, %function
_ZNK5Level10getSpawnerEv:
        ldr     ip, .L_ZNK5Level10getSpawnerEv2
.L_ZNK5Level10getSpawnerEvPIC0:
        add     ip, pc, ip 
        ldr     ip, [ip]
        blx     ip 
.L_ZNK5Level10getSpawnerEv3:
        .align  2
.L_ZNK5Level10getSpawnerEv2:
        .word   bl_addr__ZNK5Level10getSpawnerEv-(.L_ZNK5Level10getSpawnerEvPIC0+8)
        .size   _ZNK5Level10getSpawnerEv, .-_ZNK5Level10getSpawnerEv
        .hidden bl_addr__ZNK5Level10getSpawnerEv


        .global _ZN7Spawner9spawnItemER11BlockSourceRK9ItemStackP5ActorRK4Vec3i 
        .type   _ZN7Spawner9spawnItemER11BlockSourceRK9ItemStackP5ActorRK4Vec3i, %function
_ZN7Spawner9spawnItemER11BlockSourceRK9ItemStackP5ActorRK4Vec3i:
        ldr     ip, .L_ZN7Spawner9spawnItemER11BlockSourceRK9ItemStackP5ActorRK4Vec3i2
.L_ZN7Spawner9spawnItemER11BlockSourceRK9ItemStackP5ActorRK4Vec3iPIC0:
        add     ip, pc, ip 
        ldr     ip, [ip]
        blx     ip 
.L_ZN7Spawner9spawnItemER11BlockSourceRK9ItemStackP5ActorRK4Vec3i3:
        .align  2
.L_ZN7Spawner9spawnItemER11BlockSourceRK9ItemStackP5ActorRK4Vec3i2:
        .word   bl_addr__ZN7Spawner9spawnItemER11BlockSourceRK9ItemStackP5ActorRK4Vec3i-(.L_ZN7Spawner9spawnItemER11BlockSourceRK9ItemStackP5ActorRK4Vec3iPIC0+8)
        .size   _ZN7Spawner9spawnItemER11BlockSourceRK9ItemStackP5ActorRK4Vec3i, .-_ZN7Spawner9spawnItemER11BlockSourceRK9ItemStackP5ActorRK4Vec3i
        .hidden bl_addr__ZN7Spawner9spawnItemER11BlockSourceRK9ItemStackP5ActorRK4Vec3i


        .global _ZNK14ClientInstance11getTexturesEv 
        .type   _ZNK14ClientInstance11getTexturesEv, %function
_ZNK14ClientInstance11getTexturesEv:
        ldr     ip, .L_ZNK14ClientInstance11getTexturesEv2
.L_ZNK14ClientInstance11getTexturesEvPIC0:
        add     ip, pc, ip 
        ldr     ip, [ip]
        blx     ip 
.L_ZNK14ClientInstance11getTexturesEv3:
        .align  2
.L_ZNK14ClientInstance11getTexturesEv2:
        .word   bl_addr__ZNK14ClientInstance11getTexturesEv-(.L_ZNK14ClientInstance11getTexturesEvPIC0+8)
        .size   _ZNK14ClientInstance11getTexturesEv, .-_ZNK14ClientInstance11getTexturesEv
        .hidden bl_addr__ZNK14ClientInstance11getTexturesEv


        .global _ZN16ResourceLocationD2Ev 
        .type   _ZN16ResourceLocationD2Ev, %function
_ZN16ResourceLocationD2Ev:
        ldr     ip, .L_ZN16ResourceLocationD2Ev2
.L_ZN16ResourceLocationD2EvPIC0:
        add     ip, pc, ip 
        ldr     ip, [ip]
        blx     ip 
.L_ZN16ResourceLocationD2Ev3:
        .align  2
.L_ZN16ResourceLocationD2Ev2:
        .word   bl_addr__ZN16ResourceLocationD2Ev-(.L_ZN16ResourceLocationD2EvPIC0+8)
        .size   _ZN16ResourceLocationD2Ev, .-_ZN16ResourceLocationD2Ev
        .hidden bl_addr__ZN16ResourceLocationD2Ev


        .global _ZN12ItemInstanceD2Ev 
        .type   _ZN12ItemInstanceD2Ev, %function
_ZN12ItemInstanceD2Ev:
        ldr     ip, .L_ZN12ItemInstanceD2Ev2
.L_ZN12ItemInstanceD2EvPIC0:
        add     ip, pc, ip 
        ldr     ip, [ip]
        blx     ip 
.L_ZN12ItemInstanceD2Ev3:
        .align  2
.L_ZN12ItemInstanceD2Ev2:
        .word   bl_addr__ZN12ItemInstanceD2Ev-(.L_ZN12ItemInstanceD2EvPIC0+8)
        .size   _ZN12ItemInstanceD2Ev, .-_ZN12ItemInstanceD2Ev
        .hidden bl_addr__ZN12ItemInstanceD2Ev


        .global _ZN9ItemStackD2Ev 
        .type   _ZN9ItemStackD2Ev, %function
_ZN9ItemStackD2Ev:
        ldr     ip, .L_ZN9ItemStackD2Ev2
.L_ZN9ItemStackD2EvPIC0:
        add     ip, pc, ip 
        ldr     ip, [ip]
        blx     ip 
.L_ZN9ItemStackD2Ev3:
        .align  2
.L_ZN9ItemStackD2Ev2:
        .word   bl_addr__ZN9ItemStackD2Ev-(.L_ZN9ItemStackD2EvPIC0+8)
        .size   _ZN9ItemStackD2Ev, .-_ZN9ItemStackD2Ev
        .hidden bl_addr__ZN9ItemStackD2Ev


        .global _ZN11BlockLegacy14setVisualShapeERK4Vec3S2_ 
        .type   _ZN11BlockLegacy14setVisualShapeERK4Vec3S2_, %function
_ZN11BlockLegacy14setVisualShapeERK4Vec3S2_:
        ldr     ip, .L_ZN11BlockLegacy14setVisualShapeERK4Vec3S2_2
.L_ZN11BlockLegacy14setVisualShapeERK4Vec3S2_PIC0:
        add     ip, pc, ip 
        ldr     ip, [ip]
        blx     ip 
.L_ZN11BlockLegacy14setVisualShapeERK4Vec3S2_3:
        .align  2
.L_ZN11BlockLegacy14setVisualShapeERK4Vec3S2_2:
        .word   bl_addr__ZN11BlockLegacy14setVisualShapeERK4Vec3S2_-(.L_ZN11BlockLegacy14setVisualShapeERK4Vec3S2_PIC0+8)
        .size   _ZN11BlockLegacy14setVisualShapeERK4Vec3S2_, .-_ZN11BlockLegacy14setVisualShapeERK4Vec3S2_
        .hidden bl_addr__ZN11BlockLegacy14setVisualShapeERK4Vec3S2_


        .global _ZN11MobRenderer6renderER22BaseActorRenderContextR15ActorRenderData 
        .type   _ZN11MobRenderer6renderER22BaseActorRenderContextR15ActorRenderData, %function
_ZN11MobRenderer6renderER22BaseActorRenderContextR15ActorRenderData:
        ldr     ip, .L_ZN11MobRenderer6renderER22BaseActorRenderContextR15ActorRenderData2
.L_ZN11MobRenderer6renderER22BaseActorRenderContextR15ActorRenderDataPIC0:
        add     ip, pc, ip 
        ldr     ip, [ip]
        blx     ip 
.L_ZN11MobRenderer6renderER22BaseActorRenderContextR15ActorRenderData3:
        .align  2
.L_ZN11MobRenderer6renderER22BaseActorRenderContextR15ActorRenderData2:
        .word   bl_addr__ZN11MobRenderer6renderER22BaseActorRenderContextR15ActorRenderData-(.L_ZN11MobRenderer6renderER22BaseActorRenderContextR15ActorRenderDataPIC0+8)
        .size   _ZN11MobRenderer6renderER22BaseActorRenderContextR15ActorRenderData, .-_ZN11MobRenderer6renderER22BaseActorRenderContextR15ActorRenderData
        .hidden bl_addr__ZN11MobRenderer6renderER22BaseActorRenderContextR15ActorRenderData


        .global _ZN12ItemInstance11setUserDataESt10unique_ptrI11CompoundTagSt14default_deleteIS1_EE 
        .type   _ZN12ItemInstance11setUserDataESt10unique_ptrI11CompoundTagSt14default_deleteIS1_EE, %function
_ZN12ItemInstance11setUserDataESt10unique_ptrI11CompoundTagSt14default_deleteIS1_EE:
        ldr     ip, .L_ZN12ItemInstance11setUserDataESt10unique_ptrI11CompoundTagSt14default_deleteIS1_EE2
.L_ZN12ItemInstance11setUserDataESt10unique_ptrI11CompoundTagSt14default_deleteIS1_EEPIC0:
        add     ip, pc, ip 
        ldr     ip, [ip]
        blx     ip 
.L_ZN12ItemInstance11setUserDataESt10unique_ptrI11CompoundTagSt14default_deleteIS1_EE3:
        .align  2
.L_ZN12ItemInstance11setUserDataESt10unique_ptrI11CompoundTagSt14default_deleteIS1_EE2:
        .word   bl_addr__ZN12ItemInstance11setUserDataESt10unique_ptrI11CompoundTagSt14default_deleteIS1_EE-(.L_ZN12ItemInstance11setUserDataESt10unique_ptrI11CompoundTagSt14default_deleteIS1_EEPIC0+8)
        .size   _ZN12ItemInstance11setUserDataESt10unique_ptrI11CompoundTagSt14default_deleteIS1_EE, .-_ZN12ItemInstance11setUserDataESt10unique_ptrI11CompoundTagSt14default_deleteIS1_EE
        .hidden bl_addr__ZN12ItemInstance11setUserDataESt10unique_ptrI11CompoundTagSt14default_deleteIS1_EE


        .global _ZN13MinecraftGame16startLocalServerERKSsS1_RK15ContentIdentity13LevelSettings11StartIntent 
        .type   _ZN13MinecraftGame16startLocalServerERKSsS1_RK15ContentIdentity13LevelSettings11StartIntent, %function
_ZN13MinecraftGame16startLocalServerERKSsS1_RK15ContentIdentity13LevelSettings11StartIntent:
        ldr     ip, .L_ZN13MinecraftGame16startLocalServerERKSsS1_RK15ContentIdentity13LevelSettings11StartIntent2
.L_ZN13MinecraftGame16startLocalServerERKSsS1_RK15ContentIdentity13LevelSettings11StartIntentPIC0:
        add     ip, pc, ip 
        ldr     ip, [ip]
        blx     ip 
.L_ZN13MinecraftGame16startLocalServerERKSsS1_RK15ContentIdentity13LevelSettings11StartIntent3:
        .align  2
.L_ZN13MinecraftGame16startLocalServerERKSsS1_RK15ContentIdentity13LevelSettings11StartIntent2:
        .word   bl_addr__ZN13MinecraftGame16startLocalServerERKSsS1_RK15ContentIdentity13LevelSettings11StartIntent-(.L_ZN13MinecraftGame16startLocalServerERKSsS1_RK15ContentIdentity13LevelSettings11StartIntentPIC0+8)
        .size   _ZN13MinecraftGame16startLocalServerERKSsS1_RK15ContentIdentity13LevelSettings11StartIntent, .-_ZN13MinecraftGame16startLocalServerERKSsS1_RK15ContentIdentity13LevelSettings11StartIntent
        .hidden bl_addr__ZN13MinecraftGame16startLocalServerERKSsS1_RK15ContentIdentity13LevelSettings11StartIntent


        .global _ZN13MinecraftGame6updateEv 
        .type   _ZN13MinecraftGame6updateEv, %function
_ZN13MinecraftGame6updateEv:
        ldr     ip, .L_ZN13MinecraftGame6updateEv2
.L_ZN13MinecraftGame6updateEvPIC0:
        add     ip, pc, ip 
        ldr     ip, [ip]
        blx     ip 
.L_ZN13MinecraftGame6updateEv3:
        .align  2
.L_ZN13MinecraftGame6updateEv2:
        .word   bl_addr__ZN13MinecraftGame6updateEv-(.L_ZN13MinecraftGame6updateEvPIC0+8)
        .size   _ZN13MinecraftGame6updateEv, .-_ZN13MinecraftGame6updateEv
        .hidden bl_addr__ZN13MinecraftGame6updateEv


        .global _ZN14RakNetInstance7connectEN6Social18GameConnectionInfoES1_ 
        .type   _ZN14RakNetInstance7connectEN6Social18GameConnectionInfoES1_, %function
_ZN14RakNetInstance7connectEN6Social18GameConnectionInfoES1_:
        ldr     ip, .L_ZN14RakNetInstance7connectEN6Social18GameConnectionInfoES1_2
.L_ZN14RakNetInstance7connectEN6Social18GameConnectionInfoES1_PIC0:
        add     ip, pc, ip 
        ldr     ip, [ip]
        blx     ip 
.L_ZN14RakNetInstance7connectEN6Social18GameConnectionInfoES1_3:
        .align  2
.L_ZN14RakNetInstance7connectEN6Social18GameConnectionInfoES1_2:
        .word   bl_addr__ZN14RakNetInstance7connectEN6Social18GameConnectionInfoES1_-(.L_ZN14RakNetInstance7connectEN6Social18GameConnectionInfoES1_PIC0+8)
        .size   _ZN14RakNetInstance7connectEN6Social18GameConnectionInfoES1_, .-_ZN14RakNetInstance7connectEN6Social18GameConnectionInfoES1_
        .hidden bl_addr__ZN14RakNetInstance7connectEN6Social18GameConnectionInfoES1_


        .global _ZN19LevelRendererPlayer6getFovEfb 
        .type   _ZN19LevelRendererPlayer6getFovEfb, %function
_ZN19LevelRendererPlayer6getFovEfb:
        ldr     ip, .L_ZN19LevelRendererPlayer6getFovEfb2
.L_ZN19LevelRendererPlayer6getFovEfbPIC0:
        add     ip, pc, ip 
        ldr     ip, [ip]
        blx     ip 
.L_ZN19LevelRendererPlayer6getFovEfb3:
        .align  2
.L_ZN19LevelRendererPlayer6getFovEfb2:
        .word   bl_addr__ZN19LevelRendererPlayer6getFovEfb-(.L_ZN19LevelRendererPlayer6getFovEfbPIC0+8)
        .size   _ZN19LevelRendererPlayer6getFovEfb, .-_ZN19LevelRendererPlayer6getFovEfb
        .hidden bl_addr__ZN19LevelRendererPlayer6getFovEfb


        .global _ZN19ProjectileComponent5onHitER5ActorRK9HitResult 
        .type   _ZN19ProjectileComponent5onHitER5ActorRK9HitResult, %function
_ZN19ProjectileComponent5onHitER5ActorRK9HitResult:
        ldr     ip, .L_ZN19ProjectileComponent5onHitER5ActorRK9HitResult2
.L_ZN19ProjectileComponent5onHitER5ActorRK9HitResultPIC0:
        add     ip, pc, ip 
        ldr     ip, [ip]
        blx     ip 
.L_ZN19ProjectileComponent5onHitER5ActorRK9HitResult3:
        .align  2
.L_ZN19ProjectileComponent5onHitER5ActorRK9HitResult2:
        .word   bl_addr__ZN19ProjectileComponent5onHitER5ActorRK9HitResult-(.L_ZN19ProjectileComponent5onHitER5ActorRK9HitResultPIC0+8)
        .size   _ZN19ProjectileComponent5onHitER5ActorRK9HitResult, .-_ZN19ProjectileComponent5onHitER5ActorRK9HitResult
        .hidden bl_addr__ZN19ProjectileComponent5onHitER5ActorRK9HitResult


        .global _ZN20ClientNetworkHandler6handleERK17NetworkIdentifierRK10TextPacket 
        .type   _ZN20ClientNetworkHandler6handleERK17NetworkIdentifierRK10TextPacket, %function
_ZN20ClientNetworkHandler6handleERK17NetworkIdentifierRK10TextPacket:
        ldr     ip, .L_ZN20ClientNetworkHandler6handleERK17NetworkIdentifierRK10TextPacket2
.L_ZN20ClientNetworkHandler6handleERK17NetworkIdentifierRK10TextPacketPIC0:
        add     ip, pc, ip 
        ldr     ip, [ip]
        blx     ip 
.L_ZN20ClientNetworkHandler6handleERK17NetworkIdentifierRK10TextPacket3:
        .align  2
.L_ZN20ClientNetworkHandler6handleERK17NetworkIdentifierRK10TextPacket2:
        .word   bl_addr__ZN20ClientNetworkHandler6handleERK17NetworkIdentifierRK10TextPacket-(.L_ZN20ClientNetworkHandler6handleERK17NetworkIdentifierRK10TextPacketPIC0+8)
        .size   _ZN20ClientNetworkHandler6handleERK17NetworkIdentifierRK10TextPacket, .-_ZN20ClientNetworkHandler6handleERK17NetworkIdentifierRK10TextPacket
        .hidden bl_addr__ZN20ClientNetworkHandler6handleERK17NetworkIdentifierRK10TextPacket


        .global _ZN3Mob13sendInventoryEb 
        .type   _ZN3Mob13sendInventoryEb, %function
_ZN3Mob13sendInventoryEb:
        ldr     ip, .L_ZN3Mob13sendInventoryEb2
.L_ZN3Mob13sendInventoryEbPIC0:
        add     ip, pc, ip 
        ldr     ip, [ip]
        blx     ip 
.L_ZN3Mob13sendInventoryEb3:
        .align  2
.L_ZN3Mob13sendInventoryEb2:
        .word   bl_addr__ZN3Mob13sendInventoryEb-(.L_ZN3Mob13sendInventoryEbPIC0+8)
        .size   _ZN3Mob13sendInventoryEb, .-_ZN3Mob13sendInventoryEb
        .hidden bl_addr__ZN3Mob13sendInventoryEb


        .global _ZN3Mob3dieERK17ActorDamageSource 
        .type   _ZN3Mob3dieERK17ActorDamageSource, %function
_ZN3Mob3dieERK17ActorDamageSource:
        ldr     ip, .L_ZN3Mob3dieERK17ActorDamageSource2
.L_ZN3Mob3dieERK17ActorDamageSourcePIC0:
        add     ip, pc, ip 
        ldr     ip, [ip]
        blx     ip 
.L_ZN3Mob3dieERK17ActorDamageSource3:
        .align  2
.L_ZN3Mob3dieERK17ActorDamageSource2:
        .word   bl_addr__ZN3Mob3dieERK17ActorDamageSource-(.L_ZN3Mob3dieERK17ActorDamageSourcePIC0+8)
        .size   _ZN3Mob3dieERK17ActorDamageSource, .-_ZN3Mob3dieERK17ActorDamageSource
        .hidden bl_addr__ZN3Mob3dieERK17ActorDamageSource


        .global _ZN4Item11setCategoryE20CreativeItemCategory 
        .type   _ZN4Item11setCategoryE20CreativeItemCategory, %function
_ZN4Item11setCategoryE20CreativeItemCategory:
        ldr     ip, .L_ZN4Item11setCategoryE20CreativeItemCategory2
.L_ZN4Item11setCategoryE20CreativeItemCategoryPIC0:
        add     ip, pc, ip 
        ldr     ip, [ip]
        blx     ip 
.L_ZN4Item11setCategoryE20CreativeItemCategory3:
        .align  2
.L_ZN4Item11setCategoryE20CreativeItemCategory2:
        .word   bl_addr__ZN4Item11setCategoryE20CreativeItemCategory-(.L_ZN4Item11setCategoryE20CreativeItemCategoryPIC0+8)
        .size   _ZN4Item11setCategoryE20CreativeItemCategory, .-_ZN4Item11setCategoryE20CreativeItemCategory
        .hidden bl_addr__ZN4Item11setCategoryE20CreativeItemCategory


        .global _ZN4Item12setMaxDamageEi 
        .type   _ZN4Item12setMaxDamageEi, %function
_ZN4Item12setMaxDamageEi:
        ldr     ip, .L_ZN4Item12setMaxDamageEi2
.L_ZN4Item12setMaxDamageEiPIC0:
        add     ip, pc, ip 
        ldr     ip, [ip]
        blx     ip 
.L_ZN4Item12setMaxDamageEi3:
        .align  2
.L_ZN4Item12setMaxDamageEi2:
        .word   bl_addr__ZN4Item12setMaxDamageEi-(.L_ZN4Item12setMaxDamageEiPIC0+8)
        .size   _ZN4Item12setMaxDamageEi, .-_ZN4Item12setMaxDamageEi
        .hidden bl_addr__ZN4Item12setMaxDamageEi


        .global _ZN4Item15setMaxStackSizeEh 
        .type   _ZN4Item15setMaxStackSizeEh, %function
_ZN4Item15setMaxStackSizeEh:
        ldr     ip, .L_ZN4Item15setMaxStackSizeEh2
.L_ZN4Item15setMaxStackSizeEhPIC0:
        add     ip, pc, ip 
        ldr     ip, [ip]
        blx     ip 
.L_ZN4Item15setMaxStackSizeEh3:
        .align  2
.L_ZN4Item15setMaxStackSizeEh2:
        .word   bl_addr__ZN4Item15setMaxStackSizeEh-(.L_ZN4Item15setMaxStackSizeEhPIC0+8)
        .size   _ZN4Item15setMaxStackSizeEh, .-_ZN4Item15setMaxStackSizeEh
        .hidden bl_addr__ZN4Item15setMaxStackSizeEh


        .global _ZN4ItemC1ERKSss 
        .type   _ZN4ItemC1ERKSss, %function
_ZN4ItemC1ERKSss:
        ldr     ip, .L_ZN4ItemC1ERKSss2
.L_ZN4ItemC1ERKSssPIC0:
        add     ip, pc, ip 
        ldr     ip, [ip]
        blx     ip 
.L_ZN4ItemC1ERKSss3:
        .align  2
.L_ZN4ItemC1ERKSss2:
        .word   bl_addr__ZN4ItemC1ERKSss-(.L_ZN4ItemC1ERKSssPIC0+8)
        .size   _ZN4ItemC1ERKSss, .-_ZN4ItemC1ERKSss
        .hidden bl_addr__ZN4ItemC1ERKSss


        .global _ZN5Actor10stopRidingEbbb 
        .type   _ZN5Actor10stopRidingEbbb, %function
_ZN5Actor10stopRidingEbbb:
        ldr     ip, .L_ZN5Actor10stopRidingEbbb2
.L_ZN5Actor10stopRidingEbbbPIC0:
        add     ip, pc, ip 
        ldr     ip, [ip]
        blx     ip 
.L_ZN5Actor10stopRidingEbbb3:
        .align  2
.L_ZN5Actor10stopRidingEbbb2:
        .word   bl_addr__ZN5Actor10stopRidingEbbb-(.L_ZN5Actor10stopRidingEbbbPIC0+8)
        .size   _ZN5Actor10stopRidingEbbb, .-_ZN5Actor10stopRidingEbbb
        .hidden bl_addr__ZN5Actor10stopRidingEbbb


        .global _ZN5Actor11setSneakingEb 
        .type   _ZN5Actor11setSneakingEb, %function
_ZN5Actor11setSneakingEb:
        ldr     ip, .L_ZN5Actor11setSneakingEb2
.L_ZN5Actor11setSneakingEbPIC0:
        add     ip, pc, ip 
        ldr     ip, [ip]
        blx     ip 
.L_ZN5Actor11setSneakingEb3:
        .align  2
.L_ZN5Actor11setSneakingEb2:
        .word   bl_addr__ZN5Actor11setSneakingEb-(.L_ZN5Actor11setSneakingEbPIC0+8)
        .size   _ZN5Actor11setSneakingEb, .-_ZN5Actor11setSneakingEb
        .hidden bl_addr__ZN5Actor11setSneakingEb


        .global _ZN5Actor11startRidingERS_ 
        .type   _ZN5Actor11startRidingERS_, %function
_ZN5Actor11startRidingERS_:
        ldr     ip, .L_ZN5Actor11startRidingERS_2
.L_ZN5Actor11startRidingERS_PIC0:
        add     ip, pc, ip 
        ldr     ip, [ip]
        blx     ip 
.L_ZN5Actor11startRidingERS_3:
        .align  2
.L_ZN5Actor11startRidingERS_2:
        .word   bl_addr__ZN5Actor11startRidingERS_-(.L_ZN5Actor11startRidingERS_PIC0+8)
        .size   _ZN5Actor11startRidingERS_, .-_ZN5Actor11startRidingERS_
        .hidden bl_addr__ZN5Actor11startRidingERS_


        .global _ZN5Actor14setCarriedItemERK9ItemStack 
        .type   _ZN5Actor14setCarriedItemERK9ItemStack, %function
_ZN5Actor14setCarriedItemERK9ItemStack:
        ldr     ip, .L_ZN5Actor14setCarriedItemERK9ItemStack2
.L_ZN5Actor14setCarriedItemERK9ItemStackPIC0:
        add     ip, pc, ip 
        ldr     ip, [ip]
        blx     ip 
.L_ZN5Actor14setCarriedItemERK9ItemStack3:
        .align  2
.L_ZN5Actor14setCarriedItemERK9ItemStack2:
        .word   bl_addr__ZN5Actor14setCarriedItemERK9ItemStack-(.L_ZN5Actor14setCarriedItemERK9ItemStackPIC0+8)
        .size   _ZN5Actor14setCarriedItemERK9ItemStack, .-_ZN5Actor14setCarriedItemERK9ItemStack
        .hidden bl_addr__ZN5Actor14setCarriedItemERK9ItemStack


        .global _ZN5Actor14setOffhandSlotERK9ItemStack 
        .type   _ZN5Actor14setOffhandSlotERK9ItemStack, %function
_ZN5Actor14setOffhandSlotERK9ItemStack:
        ldr     ip, .L_ZN5Actor14setOffhandSlotERK9ItemStack2
.L_ZN5Actor14setOffhandSlotERK9ItemStackPIC0:
        add     ip, pc, ip 
        ldr     ip, [ip]
        blx     ip 
.L_ZN5Actor14setOffhandSlotERK9ItemStack3:
        .align  2
.L_ZN5Actor14setOffhandSlotERK9ItemStack2:
        .word   bl_addr__ZN5Actor14setOffhandSlotERK9ItemStack-(.L_ZN5Actor14setOffhandSlotERK9ItemStackPIC0+8)
        .size   _ZN5Actor14setOffhandSlotERK9ItemStack, .-_ZN5Actor14setOffhandSlotERK9ItemStack
        .hidden bl_addr__ZN5Actor14setOffhandSlotERK9ItemStack


        .global _ZN5Actor6removeEv 
        .type   _ZN5Actor6removeEv, %function
_ZN5Actor6removeEv:
        ldr     ip, .L_ZN5Actor6removeEv2
.L_ZN5Actor6removeEvPIC0:
        add     ip, pc, ip 
        ldr     ip, [ip]
        blx     ip 
.L_ZN5Actor6removeEv3:
        .align  2
.L_ZN5Actor6removeEv2:
        .word   bl_addr__ZN5Actor6removeEv-(.L_ZN5Actor6removeEvPIC0+8)
        .size   _ZN5Actor6removeEv, .-_ZN5Actor6removeEv
        .hidden bl_addr__ZN5Actor6removeEv


        .global _ZN5Actor6setPosERK4Vec3 
        .type   _ZN5Actor6setPosERK4Vec3, %function
_ZN5Actor6setPosERK4Vec3:
        ldr     ip, .L_ZN5Actor6setPosERK4Vec32
.L_ZN5Actor6setPosERK4Vec3PIC0:
        add     ip, pc, ip 
        ldr     ip, [ip]
        blx     ip 
.L_ZN5Actor6setPosERK4Vec33:
        .align  2
.L_ZN5Actor6setPosERK4Vec32:
        .word   bl_addr__ZN5Actor6setPosERK4Vec3-(.L_ZN5Actor6setPosERK4Vec3PIC0+8)
        .size   _ZN5Actor6setPosERK4Vec3, .-_ZN5Actor6setPosERK4Vec3
        .hidden bl_addr__ZN5Actor6setPosERK4Vec3


        .global _ZN5Actor7setSizeEff 
        .type   _ZN5Actor7setSizeEff, %function
_ZN5Actor7setSizeEff:
        ldr     ip, .L_ZN5Actor7setSizeEff2
.L_ZN5Actor7setSizeEffPIC0:
        add     ip, pc, ip 
        ldr     ip, [ip]
        blx     ip 
.L_ZN5Actor7setSizeEff3:
        .align  2
.L_ZN5Actor7setSizeEff2:
        .word   bl_addr__ZN5Actor7setSizeEff-(.L_ZN5Actor7setSizeEffPIC0+8)
        .size   _ZN5Actor7setSizeEff, .-_ZN5Actor7setSizeEff
        .hidden bl_addr__ZN5Actor7setSizeEff


        .global _ZN5Actor8setArmorE9ArmorSlotRK9ItemStack 
        .type   _ZN5Actor8setArmorE9ArmorSlotRK9ItemStack, %function
_ZN5Actor8setArmorE9ArmorSlotRK9ItemStack:
        ldr     ip, .L_ZN5Actor8setArmorE9ArmorSlotRK9ItemStack2
.L_ZN5Actor8setArmorE9ArmorSlotRK9ItemStackPIC0:
        add     ip, pc, ip 
        ldr     ip, [ip]
        blx     ip 
.L_ZN5Actor8setArmorE9ArmorSlotRK9ItemStack3:
        .align  2
.L_ZN5Actor8setArmorE9ArmorSlotRK9ItemStack2:
        .word   bl_addr__ZN5Actor8setArmorE9ArmorSlotRK9ItemStack-(.L_ZN5Actor8setArmorE9ArmorSlotRK9ItemStackPIC0+8)
        .size   _ZN5Actor8setArmorE9ArmorSlotRK9ItemStack, .-_ZN5Actor8setArmorE9ArmorSlotRK9ItemStack
        .hidden bl_addr__ZN5Actor8setArmorE9ArmorSlotRK9ItemStack


        .global _ZN5Actor9setOnFireEi 
        .type   _ZN5Actor9setOnFireEi, %function
_ZN5Actor9setOnFireEi:
        ldr     ip, .L_ZN5Actor9setOnFireEi2
.L_ZN5Actor9setOnFireEiPIC0:
        add     ip, pc, ip 
        ldr     ip, [ip]
        blx     ip 
.L_ZN5Actor9setOnFireEi3:
        .align  2
.L_ZN5Actor9setOnFireEi2:
        .word   bl_addr__ZN5Actor9setOnFireEi-(.L_ZN5Actor9setOnFireEiPIC0+8)
        .size   _ZN5Actor9setOnFireEi, .-_ZN5Actor9setOnFireEi
        .hidden bl_addr__ZN5Actor9setOnFireEi


        .global _ZN5Level13setDifficultyE10Difficulty 
        .type   _ZN5Level13setDifficultyE10Difficulty, %function
_ZN5Level13setDifficultyE10Difficulty:
        ldr     ip, .L_ZN5Level13setDifficultyE10Difficulty2
.L_ZN5Level13setDifficultyE10DifficultyPIC0:
        add     ip, pc, ip 
        ldr     ip, [ip]
        blx     ip 
.L_ZN5Level13setDifficultyE10Difficulty3:
        .align  2
.L_ZN5Level13setDifficultyE10Difficulty2:
        .word   bl_addr__ZN5Level13setDifficultyE10Difficulty-(.L_ZN5Level13setDifficultyE10DifficultyPIC0+8)
        .size   _ZN5Level13setDifficultyE10Difficulty, .-_ZN5Level13setDifficultyE10Difficulty
        .hidden bl_addr__ZN5Level13setDifficultyE10Difficulty


        .global _ZN5Level18queueEntityRemovalEOSt10unique_ptrI5ActorSt14default_deleteIS1_EEb 
        .type   _ZN5Level18queueEntityRemovalEOSt10unique_ptrI5ActorSt14default_deleteIS1_EEb, %function
_ZN5Level18queueEntityRemovalEOSt10unique_ptrI5ActorSt14default_deleteIS1_EEb:
        ldr     ip, .L_ZN5Level18queueEntityRemovalEOSt10unique_ptrI5ActorSt14default_deleteIS1_EEb2
.L_ZN5Level18queueEntityRemovalEOSt10unique_ptrI5ActorSt14default_deleteIS1_EEbPIC0:
        add     ip, pc, ip 
        ldr     ip, [ip]
        blx     ip 
.L_ZN5Level18queueEntityRemovalEOSt10unique_ptrI5ActorSt14default_deleteIS1_EEb3:
        .align  2
.L_ZN5Level18queueEntityRemovalEOSt10unique_ptrI5ActorSt14default_deleteIS1_EEb2:
        .word   bl_addr__ZN5Level18queueEntityRemovalEOSt10unique_ptrI5ActorSt14default_deleteIS1_EEb-(.L_ZN5Level18queueEntityRemovalEOSt10unique_ptrI5ActorSt14default_deleteIS1_EEbPIC0+8)
        .size   _ZN5Level18queueEntityRemovalEOSt10unique_ptrI5ActorSt14default_deleteIS1_EEb, .-_ZN5Level18queueEntityRemovalEOSt10unique_ptrI5ActorSt14default_deleteIS1_EEb
        .hidden bl_addr__ZN5Level18queueEntityRemovalEOSt10unique_ptrI5ActorSt14default_deleteIS1_EEb


        .global _ZN5Level9addPlayerESt10unique_ptrI6PlayerSt14default_deleteIS1_EE 
        .type   _ZN5Level9addPlayerESt10unique_ptrI6PlayerSt14default_deleteIS1_EE, %function
_ZN5Level9addPlayerESt10unique_ptrI6PlayerSt14default_deleteIS1_EE:
        ldr     ip, .L_ZN5Level9addPlayerESt10unique_ptrI6PlayerSt14default_deleteIS1_EE2
.L_ZN5Level9addPlayerESt10unique_ptrI6PlayerSt14default_deleteIS1_EEPIC0:
        add     ip, pc, ip 
        ldr     ip, [ip]
        blx     ip 
.L_ZN5Level9addPlayerESt10unique_ptrI6PlayerSt14default_deleteIS1_EE3:
        .align  2
.L_ZN5Level9addPlayerESt10unique_ptrI6PlayerSt14default_deleteIS1_EE2:
        .word   bl_addr__ZN5Level9addPlayerESt10unique_ptrI6PlayerSt14default_deleteIS1_EE-(.L_ZN5Level9addPlayerESt10unique_ptrI6PlayerSt14default_deleteIS1_EEPIC0+8)
        .size   _ZN5Level9addPlayerESt10unique_ptrI6PlayerSt14default_deleteIS1_EE, .-_ZN5Level9addPlayerESt10unique_ptrI6PlayerSt14default_deleteIS1_EE
        .hidden bl_addr__ZN5Level9addPlayerESt10unique_ptrI6PlayerSt14default_deleteIS1_EE


        .global _ZN6Player10EXHAUSTIONE 
        .type   _ZN6Player10EXHAUSTIONE, %function
_ZN6Player10EXHAUSTIONE:
        ldr     ip, .L_ZN6Player10EXHAUSTIONE2
.L_ZN6Player10EXHAUSTIONEPIC0:
        add     ip, pc, ip 
        ldr     ip, [ip]
        blx     ip 
.L_ZN6Player10EXHAUSTIONE3:
        .align  2
.L_ZN6Player10EXHAUSTIONE2:
        .word   bl_addr__ZN6Player10EXHAUSTIONE-(.L_ZN6Player10EXHAUSTIONEPIC0+8)
        .size   _ZN6Player10EXHAUSTIONE, .-_ZN6Player10EXHAUSTIONE
        .hidden bl_addr__ZN6Player10EXHAUSTIONE


        .global _ZN6Player10EXPERIENCEE 
        .type   _ZN6Player10EXPERIENCEE, %function
_ZN6Player10EXPERIENCEE:
        ldr     ip, .L_ZN6Player10EXPERIENCEE2
.L_ZN6Player10EXPERIENCEEPIC0:
        add     ip, pc, ip 
        ldr     ip, [ip]
        blx     ip 
.L_ZN6Player10EXPERIENCEE3:
        .align  2
.L_ZN6Player10EXPERIENCEE2:
        .word   bl_addr__ZN6Player10EXPERIENCEE-(.L_ZN6Player10EXPERIENCEEPIC0+8)
        .size   _ZN6Player10EXPERIENCEE, .-_ZN6Player10EXPERIENCEE
        .hidden bl_addr__ZN6Player10EXPERIENCEE


        .global _ZN6Player10SATURATIONE 
        .type   _ZN6Player10SATURATIONE, %function
_ZN6Player10SATURATIONE:
        ldr     ip, .L_ZN6Player10SATURATIONE2
.L_ZN6Player10SATURATIONEPIC0:
        add     ip, pc, ip 
        ldr     ip, [ip]
        blx     ip 
.L_ZN6Player10SATURATIONE3:
        .align  2
.L_ZN6Player10SATURATIONE2:
        .word   bl_addr__ZN6Player10SATURATIONE-(.L_ZN6Player10SATURATIONEPIC0+8)
        .size   _ZN6Player10SATURATIONE, .-_ZN6Player10SATURATIONE
        .hidden bl_addr__ZN6Player10SATURATIONE


        .global _ZN6Player17setPlayerGameTypeE8GameType 
        .type   _ZN6Player17setPlayerGameTypeE8GameType, %function
_ZN6Player17setPlayerGameTypeE8GameType:
        ldr     ip, .L_ZN6Player17setPlayerGameTypeE8GameType2
.L_ZN6Player17setPlayerGameTypeE8GameTypePIC0:
        add     ip, pc, ip 
        ldr     ip, [ip]
        blx     ip 
.L_ZN6Player17setPlayerGameTypeE8GameType3:
        .align  2
.L_ZN6Player17setPlayerGameTypeE8GameType2:
        .word   bl_addr__ZN6Player17setPlayerGameTypeE8GameType-(.L_ZN6Player17setPlayerGameTypeE8GameTypePIC0+8)
        .size   _ZN6Player17setPlayerGameTypeE8GameType, .-_ZN6Player17setPlayerGameTypeE8GameType
        .hidden bl_addr__ZN6Player17setPlayerGameTypeE8GameType


        .global _ZN6Player5LEVELE 
        .type   _ZN6Player5LEVELE, %function
_ZN6Player5LEVELE:
        ldr     ip, .L_ZN6Player5LEVELE2
.L_ZN6Player5LEVELEPIC0:
        add     ip, pc, ip 
        ldr     ip, [ip]
        blx     ip 
.L_ZN6Player5LEVELE3:
        .align  2
.L_ZN6Player5LEVELE2:
        .word   bl_addr__ZN6Player5LEVELE-(.L_ZN6Player5LEVELEPIC0+8)
        .size   _ZN6Player5LEVELE, .-_ZN6Player5LEVELE
        .hidden bl_addr__ZN6Player5LEVELE


        .global _ZN6Player6HUNGERE 
        .type   _ZN6Player6HUNGERE, %function
_ZN6Player6HUNGERE:
        ldr     ip, .L_ZN6Player6HUNGERE2
.L_ZN6Player6HUNGEREPIC0:
        add     ip, pc, ip 
        ldr     ip, [ip]
        blx     ip 
.L_ZN6Player6HUNGERE3:
        .align  2
.L_ZN6Player6HUNGERE2:
        .word   bl_addr__ZN6Player6HUNGERE-(.L_ZN6Player6HUNGEREPIC0+8)
        .size   _ZN6Player6HUNGERE, .-_ZN6Player6HUNGERE
        .hidden bl_addr__ZN6Player6HUNGERE


        .global _ZN8GameMode17startDestroyBlockERK8BlockPoshRb 
        .type   _ZN8GameMode17startDestroyBlockERK8BlockPoshRb, %function
_ZN8GameMode17startDestroyBlockERK8BlockPoshRb:
        ldr     ip, .L_ZN8GameMode17startDestroyBlockERK8BlockPoshRb2
.L_ZN8GameMode17startDestroyBlockERK8BlockPoshRbPIC0:
        add     ip, pc, ip 
        ldr     ip, [ip]
        blx     ip 
.L_ZN8GameMode17startDestroyBlockERK8BlockPoshRb3:
        .align  2
.L_ZN8GameMode17startDestroyBlockERK8BlockPoshRb2:
        .word   bl_addr__ZN8GameMode17startDestroyBlockERK8BlockPoshRb-(.L_ZN8GameMode17startDestroyBlockERK8BlockPoshRbPIC0+8)
        .size   _ZN8GameMode17startDestroyBlockERK8BlockPoshRb, .-_ZN8GameMode17startDestroyBlockERK8BlockPoshRb
        .hidden bl_addr__ZN8GameMode17startDestroyBlockERK8BlockPoshRb


        .global _ZN8GameMode20continueDestroyBlockERK8BlockPoshRb 
        .type   _ZN8GameMode20continueDestroyBlockERK8BlockPoshRb, %function
_ZN8GameMode20continueDestroyBlockERK8BlockPoshRb:
        ldr     ip, .L_ZN8GameMode20continueDestroyBlockERK8BlockPoshRb2
.L_ZN8GameMode20continueDestroyBlockERK8BlockPoshRbPIC0:
        add     ip, pc, ip 
        ldr     ip, [ip]
        blx     ip 
.L_ZN8GameMode20continueDestroyBlockERK8BlockPoshRb3:
        .align  2
.L_ZN8GameMode20continueDestroyBlockERK8BlockPoshRb2:
        .word   bl_addr__ZN8GameMode20continueDestroyBlockERK8BlockPoshRb-(.L_ZN8GameMode20continueDestroyBlockERK8BlockPoshRbPIC0+8)
        .size   _ZN8GameMode20continueDestroyBlockERK8BlockPoshRb, .-_ZN8GameMode20continueDestroyBlockERK8BlockPoshRb
        .hidden bl_addr__ZN8GameMode20continueDestroyBlockERK8BlockPoshRb


        .global _ZN8GameMode4tickEv 
        .type   _ZN8GameMode4tickEv, %function
_ZN8GameMode4tickEv:
        ldr     ip, .L_ZN8GameMode4tickEv2
.L_ZN8GameMode4tickEvPIC0:
        add     ip, pc, ip 
        ldr     ip, [ip]
        blx     ip 
.L_ZN8GameMode4tickEv3:
        .align  2
.L_ZN8GameMode4tickEv2:
        .word   bl_addr__ZN8GameMode4tickEv-(.L_ZN8GameMode4tickEvPIC0+8)
        .size   _ZN8GameMode4tickEv, .-_ZN8GameMode4tickEv
        .hidden bl_addr__ZN8GameMode4tickEv


        .global _ZN8GameMode6attackER5Actor 
        .type   _ZN8GameMode6attackER5Actor, %function
_ZN8GameMode6attackER5Actor:
        ldr     ip, .L_ZN8GameMode6attackER5Actor2
.L_ZN8GameMode6attackER5ActorPIC0:
        add     ip, pc, ip 
        ldr     ip, [ip]
        blx     ip 
.L_ZN8GameMode6attackER5Actor3:
        .align  2
.L_ZN8GameMode6attackER5Actor2:
        .word   bl_addr__ZN8GameMode6attackER5Actor-(.L_ZN8GameMode6attackER5ActorPIC0+8)
        .size   _ZN8GameMode6attackER5Actor, .-_ZN8GameMode6attackER5Actor
        .hidden bl_addr__ZN8GameMode6attackER5Actor


        .global _ZN8GameMode9useItemOnER9ItemStackRK8BlockPoshRK4Vec3PK5Block 
        .type   _ZN8GameMode9useItemOnER9ItemStackRK8BlockPoshRK4Vec3PK5Block, %function
_ZN8GameMode9useItemOnER9ItemStackRK8BlockPoshRK4Vec3PK5Block:
        ldr     ip, .L_ZN8GameMode9useItemOnER9ItemStackRK8BlockPoshRK4Vec3PK5Block2
.L_ZN8GameMode9useItemOnER9ItemStackRK8BlockPoshRK4Vec3PK5BlockPIC0:
        add     ip, pc, ip 
        ldr     ip, [ip]
        blx     ip 
.L_ZN8GameMode9useItemOnER9ItemStackRK8BlockPoshRK4Vec3PK5Block3:
        .align  2
.L_ZN8GameMode9useItemOnER9ItemStackRK8BlockPoshRK4Vec3PK5Block2:
        .word   bl_addr__ZN8GameMode9useItemOnER9ItemStackRK8BlockPoshRK4Vec3PK5Block-(.L_ZN8GameMode9useItemOnER9ItemStackRK8BlockPoshRK4Vec3PK5BlockPIC0+8)
        .size   _ZN8GameMode9useItemOnER9ItemStackRK8BlockPoshRK4Vec3PK5Block, .-_ZN8GameMode9useItemOnER9ItemStackRK8BlockPoshRK4Vec3PK5Block
        .hidden bl_addr__ZN8GameMode9useItemOnER9ItemStackRK8BlockPoshRK4Vec3PK5Block


        .global _ZN9Minecraft23getServerNetworkHandlerEv 
        .type   _ZN9Minecraft23getServerNetworkHandlerEv, %function
_ZN9Minecraft23getServerNetworkHandlerEv:
        ldr     ip, .L_ZN9Minecraft23getServerNetworkHandlerEv2
.L_ZN9Minecraft23getServerNetworkHandlerEvPIC0:
        add     ip, pc, ip 
        ldr     ip, [ip]
        blx     ip 
.L_ZN9Minecraft23getServerNetworkHandlerEv3:
        .align  2
.L_ZN9Minecraft23getServerNetworkHandlerEv2:
        .word   bl_addr__ZN9Minecraft23getServerNetworkHandlerEv-(.L_ZN9Minecraft23getServerNetworkHandlerEvPIC0+8)
        .size   _ZN9Minecraft23getServerNetworkHandlerEv, .-_ZN9Minecraft23getServerNetworkHandlerEv
        .hidden bl_addr__ZN9Minecraft23getServerNetworkHandlerEv


        .global _ZN9ModelPart5resetEv 
        .type   _ZN9ModelPart5resetEv, %function
_ZN9ModelPart5resetEv:
        ldr     ip, .L_ZN9ModelPart5resetEv2
.L_ZN9ModelPart5resetEvPIC0:
        add     ip, pc, ip 
        ldr     ip, [ip]
        blx     ip 
.L_ZN9ModelPart5resetEv3:
        .align  2
.L_ZN9ModelPart5resetEv2:
        .word   bl_addr__ZN9ModelPart5resetEv-(.L_ZN9ModelPart5resetEvPIC0+8)
        .size   _ZN9ModelPart5resetEv, .-_ZN9ModelPart5resetEv
        .hidden bl_addr__ZN9ModelPart5resetEv


        .global _ZNK11BlockLegacy13getSecondPartER11BlockSourceRK8BlockPosRS2_ 
        .type   _ZNK11BlockLegacy13getSecondPartER11BlockSourceRK8BlockPosRS2_, %function
_ZNK11BlockLegacy13getSecondPartER11BlockSourceRK8BlockPosRS2_:
        ldr     ip, .L_ZNK11BlockLegacy13getSecondPartER11BlockSourceRK8BlockPosRS2_2
.L_ZNK11BlockLegacy13getSecondPartER11BlockSourceRK8BlockPosRS2_PIC0:
        add     ip, pc, ip 
        ldr     ip, [ip]
        blx     ip 
.L_ZNK11BlockLegacy13getSecondPartER11BlockSourceRK8BlockPosRS2_3:
        .align  2
.L_ZNK11BlockLegacy13getSecondPartER11BlockSourceRK8BlockPosRS2_2:
        .word   bl_addr__ZNK11BlockLegacy13getSecondPartER11BlockSourceRK8BlockPosRS2_-(.L_ZNK11BlockLegacy13getSecondPartER11BlockSourceRK8BlockPosRS2_PIC0+8)
        .size   _ZNK11BlockLegacy13getSecondPartER11BlockSourceRK8BlockPosRS2_, .-_ZNK11BlockLegacy13getSecondPartER11BlockSourceRK8BlockPosRS2_
        .hidden bl_addr__ZNK11BlockLegacy13getSecondPartER11BlockSourceRK8BlockPosRS2_


        .global _ZNK11BlockLegacy14getVisualShapeERK5BlockR4AABBb 
        .type   _ZNK11BlockLegacy14getVisualShapeERK5BlockR4AABBb, %function
_ZNK11BlockLegacy14getVisualShapeERK5BlockR4AABBb:
        ldr     ip, .L_ZNK11BlockLegacy14getVisualShapeERK5BlockR4AABBb2
.L_ZNK11BlockLegacy14getVisualShapeERK5BlockR4AABBbPIC0:
        add     ip, pc, ip 
        ldr     ip, [ip]
        blx     ip 
.L_ZNK11BlockLegacy14getVisualShapeERK5BlockR4AABBb3:
        .align  2
.L_ZNK11BlockLegacy14getVisualShapeERK5BlockR4AABBb2:
        .word   bl_addr__ZNK11BlockLegacy14getVisualShapeERK5BlockR4AABBb-(.L_ZNK11BlockLegacy14getVisualShapeERK5BlockR4AABBbPIC0+8)
        .size   _ZNK11BlockLegacy14getVisualShapeERK5BlockR4AABBb, .-_ZNK11BlockLegacy14getVisualShapeERK5BlockR4AABBb
        .hidden bl_addr__ZNK11BlockLegacy14getVisualShapeERK5BlockR4AABBb


        .global _ZNK11BlockLegacy16onRedstoneUpdateER11BlockSourceRK8BlockPosib 
        .type   _ZNK11BlockLegacy16onRedstoneUpdateER11BlockSourceRK8BlockPosib, %function
_ZNK11BlockLegacy16onRedstoneUpdateER11BlockSourceRK8BlockPosib:
        ldr     ip, .L_ZNK11BlockLegacy16onRedstoneUpdateER11BlockSourceRK8BlockPosib2
.L_ZNK11BlockLegacy16onRedstoneUpdateER11BlockSourceRK8BlockPosibPIC0:
        add     ip, pc, ip 
        ldr     ip, [ip]
        blx     ip 
.L_ZNK11BlockLegacy16onRedstoneUpdateER11BlockSourceRK8BlockPosib3:
        .align  2
.L_ZNK11BlockLegacy16onRedstoneUpdateER11BlockSourceRK8BlockPosib2:
        .word   bl_addr__ZNK11BlockLegacy16onRedstoneUpdateER11BlockSourceRK8BlockPosib-(.L_ZNK11BlockLegacy16onRedstoneUpdateER11BlockSourceRK8BlockPosibPIC0+8)
        .size   _ZNK11BlockLegacy16onRedstoneUpdateER11BlockSourceRK8BlockPosib, .-_ZNK11BlockLegacy16onRedstoneUpdateER11BlockSourceRK8BlockPosib
        .hidden bl_addr__ZNK11BlockLegacy16onRedstoneUpdateER11BlockSourceRK8BlockPosib


        .global _ZNK11BlockLegacy22setupRedstoneComponentER11BlockSourceRK8BlockPos 
        .type   _ZNK11BlockLegacy22setupRedstoneComponentER11BlockSourceRK8BlockPos, %function
_ZNK11BlockLegacy22setupRedstoneComponentER11BlockSourceRK8BlockPos:
        ldr     ip, .L_ZNK11BlockLegacy22setupRedstoneComponentER11BlockSourceRK8BlockPos2
.L_ZNK11BlockLegacy22setupRedstoneComponentER11BlockSourceRK8BlockPosPIC0:
        add     ip, pc, ip 
        ldr     ip, [ip]
        blx     ip 
.L_ZNK11BlockLegacy22setupRedstoneComponentER11BlockSourceRK8BlockPos3:
        .align  2
.L_ZNK11BlockLegacy22setupRedstoneComponentER11BlockSourceRK8BlockPos2:
        .word   bl_addr__ZNK11BlockLegacy22setupRedstoneComponentER11BlockSourceRK8BlockPos-(.L_ZNK11BlockLegacy22setupRedstoneComponentER11BlockSourceRK8BlockPosPIC0+8)
        .size   _ZNK11BlockLegacy22setupRedstoneComponentER11BlockSourceRK8BlockPos, .-_ZNK11BlockLegacy22setupRedstoneComponentER11BlockSourceRK8BlockPos
        .hidden bl_addr__ZNK11BlockLegacy22setupRedstoneComponentER11BlockSourceRK8BlockPos


        .global _ZNK11BlockLegacy7getAABBER11BlockSourceRK8BlockPosRK5BlockR4AABBb 
        .type   _ZNK11BlockLegacy7getAABBER11BlockSourceRK8BlockPosRK5BlockR4AABBb, %function
_ZNK11BlockLegacy7getAABBER11BlockSourceRK8BlockPosRK5BlockR4AABBb:
        ldr     ip, .L_ZNK11BlockLegacy7getAABBER11BlockSourceRK8BlockPosRK5BlockR4AABBb2
.L_ZNK11BlockLegacy7getAABBER11BlockSourceRK8BlockPosRK5BlockR4AABBbPIC0:
        add     ip, pc, ip 
        ldr     ip, [ip]
        blx     ip 
.L_ZNK11BlockLegacy7getAABBER11BlockSourceRK8BlockPosRK5BlockR4AABBb3:
        .align  2
.L_ZNK11BlockLegacy7getAABBER11BlockSourceRK8BlockPosRK5BlockR4AABBb2:
        .word   bl_addr__ZNK11BlockLegacy7getAABBER11BlockSourceRK8BlockPosRK5BlockR4AABBb-(.L_ZNK11BlockLegacy7getAABBER11BlockSourceRK8BlockPosRK5BlockR4AABBbPIC0+8)
        .size   _ZNK11BlockLegacy7getAABBER11BlockSourceRK8BlockPosRK5BlockR4AABBb, .-_ZNK11BlockLegacy7getAABBER11BlockSourceRK8BlockPosRK5BlockR4AABBb
        .hidden bl_addr__ZNK11BlockLegacy7getAABBER11BlockSourceRK8BlockPosRK5BlockR4AABBb


        .global _ZNK11BlockLegacy7onPlaceER11BlockSourceRK8BlockPos 
        .type   _ZNK11BlockLegacy7onPlaceER11BlockSourceRK8BlockPos, %function
_ZNK11BlockLegacy7onPlaceER11BlockSourceRK8BlockPos:
        ldr     ip, .L_ZNK11BlockLegacy7onPlaceER11BlockSourceRK8BlockPos2
.L_ZNK11BlockLegacy7onPlaceER11BlockSourceRK8BlockPosPIC0:
        add     ip, pc, ip 
        ldr     ip, [ip]
        blx     ip 
.L_ZNK11BlockLegacy7onPlaceER11BlockSourceRK8BlockPos3:
        .align  2
.L_ZNK11BlockLegacy7onPlaceER11BlockSourceRK8BlockPos2:
        .word   bl_addr__ZNK11BlockLegacy7onPlaceER11BlockSourceRK8BlockPos-(.L_ZNK11BlockLegacy7onPlaceER11BlockSourceRK8BlockPosPIC0+8)
        .size   _ZNK11BlockLegacy7onPlaceER11BlockSourceRK8BlockPos, .-_ZNK11BlockLegacy7onPlaceER11BlockSourceRK8BlockPos
        .hidden bl_addr__ZNK11BlockLegacy7onPlaceER11BlockSourceRK8BlockPos


        .global _ZNK11BlockLegacy8getColorER11BlockSourceRK8BlockPosRK5Block 
        .type   _ZNK11BlockLegacy8getColorER11BlockSourceRK8BlockPosRK5Block, %function
_ZNK11BlockLegacy8getColorER11BlockSourceRK8BlockPosRK5Block:
        ldr     ip, .L_ZNK11BlockLegacy8getColorER11BlockSourceRK8BlockPosRK5Block2
.L_ZNK11BlockLegacy8getColorER11BlockSourceRK8BlockPosRK5BlockPIC0:
        add     ip, pc, ip 
        ldr     ip, [ip]
        blx     ip 
.L_ZNK11BlockLegacy8getColorER11BlockSourceRK8BlockPosRK5Block3:
        .align  2
.L_ZNK11BlockLegacy8getColorER11BlockSourceRK8BlockPosRK5Block2:
        .word   bl_addr__ZNK11BlockLegacy8getColorER11BlockSourceRK8BlockPosRK5Block-(.L_ZNK11BlockLegacy8getColorER11BlockSourceRK8BlockPosRK5BlockPIC0+8)
        .size   _ZNK11BlockLegacy8getColorER11BlockSourceRK8BlockPosRK5Block, .-_ZNK11BlockLegacy8getColorER11BlockSourceRK8BlockPosRK5Block
        .hidden bl_addr__ZNK11BlockLegacy8getColorER11BlockSourceRK8BlockPosRK5Block


        .global _ZNK11BlockLegacy8getColorERK5Block 
        .type   _ZNK11BlockLegacy8getColorERK5Block, %function
_ZNK11BlockLegacy8getColorERK5Block:
        ldr     ip, .L_ZNK11BlockLegacy8getColorERK5Block2
.L_ZNK11BlockLegacy8getColorERK5BlockPIC0:
        add     ip, pc, ip 
        ldr     ip, [ip]
        blx     ip 
.L_ZNK11BlockLegacy8getColorERK5Block3:
        .align  2
.L_ZNK11BlockLegacy8getColorERK5Block2:
        .word   bl_addr__ZNK11BlockLegacy8getColorERK5Block-(.L_ZNK11BlockLegacy8getColorERK5BlockPIC0+8)
        .size   _ZNK11BlockLegacy8getColorERK5Block, .-_ZNK11BlockLegacy8getColorERK5Block
        .hidden bl_addr__ZNK11BlockLegacy8getColorERK5Block


        .global _ZNK14FeatureToggles9isEnabledE15FeatureOptionID 
        .type   _ZNK14FeatureToggles9isEnabledE15FeatureOptionID, %function
_ZNK14FeatureToggles9isEnabledE15FeatureOptionID:
        ldr     ip, .L_ZNK14FeatureToggles9isEnabledE15FeatureOptionID2
.L_ZNK14FeatureToggles9isEnabledE15FeatureOptionIDPIC0:
        add     ip, pc, ip 
        ldr     ip, [ip]
        blx     ip 
.L_ZNK14FeatureToggles9isEnabledE15FeatureOptionID3:
        .align  2
.L_ZNK14FeatureToggles9isEnabledE15FeatureOptionID2:
        .word   bl_addr__ZNK14FeatureToggles9isEnabledE15FeatureOptionID-(.L_ZNK14FeatureToggles9isEnabledE15FeatureOptionIDPIC0+8)
        .size   _ZNK14FeatureToggles9isEnabledE15FeatureOptionID, .-_ZNK14FeatureToggles9isEnabledE15FeatureOptionID
        .hidden bl_addr__ZNK14FeatureToggles9isEnabledE15FeatureOptionID


        .global _ZNK4Item14getEnchantSlotEv 
        .type   _ZNK4Item14getEnchantSlotEv, %function
_ZNK4Item14getEnchantSlotEv:
        ldr     ip, .L_ZNK4Item14getEnchantSlotEv2
.L_ZNK4Item14getEnchantSlotEvPIC0:
        add     ip, pc, ip 
        ldr     ip, [ip]
        blx     ip 
.L_ZNK4Item14getEnchantSlotEv3:
        .align  2
.L_ZNK4Item14getEnchantSlotEv2:
        .word   bl_addr__ZNK4Item14getEnchantSlotEv-(.L_ZNK4Item14getEnchantSlotEvPIC0+8)
        .size   _ZNK4Item14getEnchantSlotEv, .-_ZNK4Item14getEnchantSlotEv
        .hidden bl_addr__ZNK4Item14getEnchantSlotEv


        .global _ZNK4Item15getEnchantValueEv 
        .type   _ZNK4Item15getEnchantValueEv, %function
_ZNK4Item15getEnchantValueEv:
        ldr     ip, .L_ZNK4Item15getEnchantValueEv2
.L_ZNK4Item15getEnchantValueEvPIC0:
        add     ip, pc, ip 
        ldr     ip, [ip]
        blx     ip 
.L_ZNK4Item15getEnchantValueEv3:
        .align  2
.L_ZNK4Item15getEnchantValueEv2:
        .word   bl_addr__ZNK4Item15getEnchantValueEv-(.L_ZNK4Item15getEnchantValueEvPIC0+8)
        .size   _ZNK4Item15getEnchantValueEv, .-_ZNK4Item15getEnchantValueEv
        .hidden bl_addr__ZNK4Item15getEnchantValueEv


        .global _ZNK4Item3useER9ItemStackR6Player 
        .type   _ZNK4Item3useER9ItemStackR6Player, %function
_ZNK4Item3useER9ItemStackR6Player:
        ldr     ip, .L_ZNK4Item3useER9ItemStackR6Player2
.L_ZNK4Item3useER9ItemStackR6PlayerPIC0:
        add     ip, pc, ip 
        ldr     ip, [ip]
        blx     ip 
.L_ZNK4Item3useER9ItemStackR6Player3:
        .align  2
.L_ZNK4Item3useER9ItemStackR6Player2:
        .word   bl_addr__ZNK4Item3useER9ItemStackR6Player-(.L_ZNK4Item3useER9ItemStackR6PlayerPIC0+8)
        .size   _ZNK4Item3useER9ItemStackR6Player, .-_ZNK4Item3useER9ItemStackR6Player
        .hidden bl_addr__ZNK4Item3useER9ItemStackR6Player


        .global _ZNK5Actor10isSneakingEv 
        .type   _ZNK5Actor10isSneakingEv, %function
_ZNK5Actor10isSneakingEv:
        ldr     ip, .L_ZNK5Actor10isSneakingEv2
.L_ZNK5Actor10isSneakingEvPIC0:
        add     ip, pc, ip 
        ldr     ip, [ip]
        blx     ip 
.L_ZNK5Actor10isSneakingEv3:
        .align  2
.L_ZNK5Actor10isSneakingEv2:
        .word   bl_addr__ZNK5Actor10isSneakingEv-(.L_ZNK5Actor10isSneakingEvPIC0+8)
        .size   _ZNK5Actor10isSneakingEv, .-_ZNK5Actor10isSneakingEv
        .hidden bl_addr__ZNK5Actor10isSneakingEv


        .global _ZNK5Actor11canAddRiderERS_ 
        .type   _ZNK5Actor11canAddRiderERS_, %function
_ZNK5Actor11canAddRiderERS_:
        ldr     ip, .L_ZNK5Actor11canAddRiderERS_2
.L_ZNK5Actor11canAddRiderERS_PIC0:
        add     ip, pc, ip 
        ldr     ip, [ip]
        blx     ip 
.L_ZNK5Actor11canAddRiderERS_3:
        .align  2
.L_ZNK5Actor11canAddRiderERS_2:
        .word   bl_addr__ZNK5Actor11canAddRiderERS_-(.L_ZNK5Actor11canAddRiderERS_PIC0+8)
        .size   _ZNK5Actor11canAddRiderERS_, .-_ZNK5Actor11canAddRiderERS_
        .hidden bl_addr__ZNK5Actor11canAddRiderERS_


        .global _ZNK5Actor14getCarriedItemEv 
        .type   _ZNK5Actor14getCarriedItemEv, %function
_ZNK5Actor14getCarriedItemEv:
        ldr     ip, .L_ZNK5Actor14getCarriedItemEv2
.L_ZNK5Actor14getCarriedItemEvPIC0:
        add     ip, pc, ip 
        ldr     ip, [ip]
        blx     ip 
.L_ZNK5Actor14getCarriedItemEv3:
        .align  2
.L_ZNK5Actor14getCarriedItemEv2:
        .word   bl_addr__ZNK5Actor14getCarriedItemEv-(.L_ZNK5Actor14getCarriedItemEvPIC0+8)
        .size   _ZNK5Actor14getCarriedItemEv, .-_ZNK5Actor14getCarriedItemEv
        .hidden bl_addr__ZNK5Actor14getCarriedItemEv


        .global _ZNK5Actor14getDimensionIdEv 
        .type   _ZNK5Actor14getDimensionIdEv, %function
_ZNK5Actor14getDimensionIdEv:
        ldr     ip, .L_ZNK5Actor14getDimensionIdEv2
.L_ZNK5Actor14getDimensionIdEvPIC0:
        add     ip, pc, ip 
        ldr     ip, [ip]
        blx     ip 
.L_ZNK5Actor14getDimensionIdEv3:
        .align  2
.L_ZNK5Actor14getDimensionIdEv2:
        .word   bl_addr__ZNK5Actor14getDimensionIdEv-(.L_ZNK5Actor14getDimensionIdEvPIC0+8)
        .size   _ZNK5Actor14getDimensionIdEv, .-_ZNK5Actor14getDimensionIdEv
        .hidden bl_addr__ZNK5Actor14getDimensionIdEv


        .global _ZNK5Actor15getEntityTypeIdEv 
        .type   _ZNK5Actor15getEntityTypeIdEv, %function
_ZNK5Actor15getEntityTypeIdEv:
        ldr     ip, .L_ZNK5Actor15getEntityTypeIdEv2
.L_ZNK5Actor15getEntityTypeIdEvPIC0:
        add     ip, pc, ip 
        ldr     ip, [ip]
        blx     ip 
.L_ZNK5Actor15getEntityTypeIdEv3:
        .align  2
.L_ZNK5Actor15getEntityTypeIdEv2:
        .word   bl_addr__ZNK5Actor15getEntityTypeIdEv-(.L_ZNK5Actor15getEntityTypeIdEvPIC0+8)
        .size   _ZNK5Actor15getEntityTypeIdEv, .-_ZNK5Actor15getEntityTypeIdEv
        .hidden bl_addr__ZNK5Actor15getEntityTypeIdEv


        .global _ZNK6Player14getCarriedItemEv 
        .type   _ZNK6Player14getCarriedItemEv, %function
_ZNK6Player14getCarriedItemEv:
        ldr     ip, .L_ZNK6Player14getCarriedItemEv2
.L_ZNK6Player14getCarriedItemEvPIC0:
        add     ip, pc, ip 
        ldr     ip, [ip]
        blx     ip 
.L_ZNK6Player14getCarriedItemEv3:
        .align  2
.L_ZNK6Player14getCarriedItemEv2:
        .word   bl_addr__ZNK6Player14getCarriedItemEv-(.L_ZNK6Player14getCarriedItemEvPIC0+8)
        .size   _ZNK6Player14getCarriedItemEv, .-_ZNK6Player14getCarriedItemEv
        .hidden bl_addr__ZNK6Player14getCarriedItemEv


        .global _ZTV11BlockLegacy 
        .type   _ZTV11BlockLegacy, %function
_ZTV11BlockLegacy:
        ldr     ip, .L_ZTV11BlockLegacy2
.L_ZTV11BlockLegacyPIC0:
        add     ip, pc, ip 
        ldr     ip, [ip]
        blx     ip 
.L_ZTV11BlockLegacy3:
        .align  2
.L_ZTV11BlockLegacy2:
        .word   bl_addr__ZTV11BlockLegacy-(.L_ZTV11BlockLegacyPIC0+8)
        .size   _ZTV11BlockLegacy, .-_ZTV11BlockLegacy
        .hidden bl_addr__ZTV11BlockLegacy


        .global _ZTV3Mob 
        .type   _ZTV3Mob, %function
_ZTV3Mob:
        ldr     ip, .L_ZTV3Mob2
.L_ZTV3MobPIC0:
        add     ip, pc, ip 
        ldr     ip, [ip]
        blx     ip 
.L_ZTV3Mob3:
        .align  2
.L_ZTV3Mob2:
        .word   bl_addr__ZTV3Mob-(.L_ZTV3MobPIC0+8)
        .size   _ZTV3Mob, .-_ZTV3Mob
        .hidden bl_addr__ZTV3Mob


        .global _ZTV4Item 
        .type   _ZTV4Item, %function
_ZTV4Item:
        ldr     ip, .L_ZTV4Item2
.L_ZTV4ItemPIC0:
        add     ip, pc, ip 
        ldr     ip, [ip]
        blx     ip 
.L_ZTV4Item3:
        .align  2
.L_ZTV4Item2:
        .word   bl_addr__ZTV4Item-(.L_ZTV4ItemPIC0+8)
        .size   _ZTV4Item, .-_ZTV4Item
        .hidden bl_addr__ZTV4Item


        .global _ZTV5Actor 
        .type   _ZTV5Actor, %function
_ZTV5Actor:
        ldr     ip, .L_ZTV5Actor2
.L_ZTV5ActorPIC0:
        add     ip, pc, ip 
        ldr     ip, [ip]
        blx     ip 
.L_ZTV5Actor3:
        .align  2
.L_ZTV5Actor2:
        .word   bl_addr__ZTV5Actor-(.L_ZTV5ActorPIC0+8)
        .size   _ZTV5Actor, .-_ZTV5Actor
        .hidden bl_addr__ZTV5Actor


        .global _ZTV8GameMode 
        .type   _ZTV8GameMode, %function
_ZTV8GameMode:
        ldr     ip, .L_ZTV8GameMode2
.L_ZTV8GameModePIC0:
        add     ip, pc, ip 
        ldr     ip, [ip]
        blx     ip 
.L_ZTV8GameMode3:
        .align  2
.L_ZTV8GameMode2:
        .word   bl_addr__ZTV8GameMode-(.L_ZTV8GameModePIC0+8)
        .size   _ZTV8GameMode, .-_ZTV8GameMode
        .hidden bl_addr__ZTV8GameMode


        .ident  "GCC: (GNU) 4.8"
        .section        .note.GNU-stack,"",%progbits

